(dp0
S'isShellCmd'
p1
I00
sS'cmd'
p2
(lp3
S'/opt/biogrids/x86_64-linux/strelka/2.9.2/libexec/GetChromDepth'
p4
aS'--ref'
p5
aS'/data/references/b37/human_g1k_v37_decoy.fasta'
p6
aS'--align-file'
p7
aS'/scratch/2022_summer_internship/mjcho/FCD_project/bam/Targeted_C_Normal.sorted.RGadded.marked.realigned.fixed.recal.bam'
p8
aS'--output'
p9
aS'/scratch/2022_summer_internship/mjcho/FCD_project/Targeted_C_strelka/workspace/chromDepth.tsv.tmpdir/chromDepth.tsv.000.txt.tmpdir/chromDepth.tsv.000.txt_006_7'
p10
aS'--chrom'
p11
aS'7'
p12
asS'errFile'
p13
S'/scratch/2022_summer_internship/mjcho/FCD_project/Targeted_C_strelka/workspace/pyflow.data/logs/pyflow_tasks_stderr_log.txt'
p14
sS'outFile'
p15
S'/scratch/2022_summer_internship/mjcho/FCD_project/Targeted_C_strelka/workspace/pyflow.data/logs/pyflow_tasks_stdout_log.txt'
p16
sS'env'
p17
NsS'nCores'
p18
I1
sS'cwd'
p19
S''
p20
s.