(dp0
S'isShellCmd'
p1
I00
sS'cmd'
p2
(lp3
S'/opt/biogrids/x86_64-linux/strelka/2.9.2/libexec/mergeChromDepth.py'
p4
aS'--out'
p5
aS'/scratch/2022_summer_internship/mjcho/FCD_project/Targeted_C_strelka/workspace/chromDepth.tsv'
p6
aS'--in'
p7
aS'/scratch/2022_summer_internship/mjcho/FCD_project/Targeted_C_strelka/workspace/chromDepth.tsv.tmpdir/chromDepth.tsv.000.txt'
p8
asS'errFile'
p9
S'/scratch/2022_summer_internship/mjcho/FCD_project/Targeted_C_strelka/workspace/pyflow.data/logs/pyflow_tasks_stderr_log.txt'
p10
sS'outFile'
p11
S'/scratch/2022_summer_internship/mjcho/FCD_project/Targeted_C_strelka/workspace/pyflow.data/logs/pyflow_tasks_stdout_log.txt'
p12
sS'env'
p13
NsS'nCores'
p14
I1
sS'cwd'
p15
S''
p16
s.