(dp0
S'isShellCmd'
p1
I00
sS'cmd'
p2
(lp3
S'/opt/biogrids/x86_64-linux/strelka/2.9.2/libexec/cat.py'
p4
aS'--output'
p5
aS'/scratch/2022_summer_internship/mjcho/FCD_project/Targeted_C_strelka/workspace/chromDepth.tsv.tmpdir/chromDepth.tsv.000.txt'
p6
aS'/scratch/2022_summer_internship/mjcho/FCD_project/Targeted_C_strelka/workspace/chromDepth.tsv.tmpdir/chromDepth.tsv.000.txt.tmpdir/chromDepth.tsv.000.txt_000_1'
p7
aS'/scratch/2022_summer_internship/mjcho/FCD_project/Targeted_C_strelka/workspace/chromDepth.tsv.tmpdir/chromDepth.tsv.000.txt.tmpdir/chromDepth.tsv.000.txt_001_2'
p8
aS'/scratch/2022_summer_internship/mjcho/FCD_project/Targeted_C_strelka/workspace/chromDepth.tsv.tmpdir/chromDepth.tsv.000.txt.tmpdir/chromDepth.tsv.000.txt_002_3'
p9
aS'/scratch/2022_summer_internship/mjcho/FCD_project/Targeted_C_strelka/workspace/chromDepth.tsv.tmpdir/chromDepth.tsv.000.txt.tmpdir/chromDepth.tsv.000.txt_004_5'
p10
aS'/scratch/2022_summer_internship/mjcho/FCD_project/Targeted_C_strelka/workspace/chromDepth.tsv.tmpdir/chromDepth.tsv.000.txt.tmpdir/chromDepth.tsv.000.txt_005_6'
p11
aS'/scratch/2022_summer_internship/mjcho/FCD_project/Targeted_C_strelka/workspace/chromDepth.tsv.tmpdir/chromDepth.tsv.000.txt.tmpdir/chromDepth.tsv.000.txt_006_7'
p12
aS'/scratch/2022_summer_internship/mjcho/FCD_project/Targeted_C_strelka/workspace/chromDepth.tsv.tmpdir/chromDepth.tsv.000.txt.tmpdir/chromDepth.tsv.000.txt_008_9'
p13
aS'/scratch/2022_summer_internship/mjcho/FCD_project/Targeted_C_strelka/workspace/chromDepth.tsv.tmpdir/chromDepth.tsv.000.txt.tmpdir/chromDepth.tsv.000.txt_009_10'
p14
aS'/scratch/2022_summer_internship/mjcho/FCD_project/Targeted_C_strelka/workspace/chromDepth.tsv.tmpdir/chromDepth.tsv.000.txt.tmpdir/chromDepth.tsv.000.txt_011_12'
p15
aS'/scratch/2022_summer_internship/mjcho/FCD_project/Targeted_C_strelka/workspace/chromDepth.tsv.tmpdir/chromDepth.tsv.000.txt.tmpdir/chromDepth.tsv.000.txt_013_14'
p16
aS'/scratch/2022_summer_internship/mjcho/FCD_project/Targeted_C_strelka/workspace/chromDepth.tsv.tmpdir/chromDepth.tsv.000.txt.tmpdir/chromDepth.tsv.000.txt_014_15'
p17
aS'/scratch/2022_summer_internship/mjcho/FCD_project/Targeted_C_strelka/workspace/chromDepth.tsv.tmpdir/chromDepth.tsv.000.txt.tmpdir/chromDepth.tsv.000.txt_015_16'
p18
aS'/scratch/2022_summer_internship/mjcho/FCD_project/Targeted_C_strelka/workspace/chromDepth.tsv.tmpdir/chromDepth.tsv.000.txt.tmpdir/chromDepth.tsv.000.txt_016_17'
p19
aS'/scratch/2022_summer_internship/mjcho/FCD_project/Targeted_C_strelka/workspace/chromDepth.tsv.tmpdir/chromDepth.tsv.000.txt.tmpdir/chromDepth.tsv.000.txt_017_18'
p20
aS'/scratch/2022_summer_internship/mjcho/FCD_project/Targeted_C_strelka/workspace/chromDepth.tsv.tmpdir/chromDepth.tsv.000.txt.tmpdir/chromDepth.tsv.000.txt_018_19'
p21
aS'/scratch/2022_summer_internship/mjcho/FCD_project/Targeted_C_strelka/workspace/chromDepth.tsv.tmpdir/chromDepth.tsv.000.txt.tmpdir/chromDepth.tsv.000.txt_021_22'
p22
aS'/scratch/2022_summer_internship/mjcho/FCD_project/Targeted_C_strelka/workspace/chromDepth.tsv.tmpdir/chromDepth.tsv.000.txt.tmpdir/chromDepth.tsv.000.txt_022_X'
p23
asS'errFile'
p24
S'/scratch/2022_summer_internship/mjcho/FCD_project/Targeted_C_strelka/workspace/pyflow.data/logs/pyflow_tasks_stderr_log.txt'
p25
sS'outFile'
p26
S'/scratch/2022_summer_internship/mjcho/FCD_project/Targeted_C_strelka/workspace/pyflow.data/logs/pyflow_tasks_stdout_log.txt'
p27
sS'env'
p28
NsS'nCores'
p29
I1
sS'cwd'
p30
S''
p31
s.