(dp0
S'isShellCmd'
p1
I00
sS'cmd'
p2
(lp3
S'/opt/biogrids/x86_64-linux/strelka/2.9.2/libexec/bgzf_cat'
p4
aS'-o'
p5
aS'/scratch/2022_summer_internship/mjcho/FCD_project/WES_A_strelka/results/variants/somatic.snvs.vcf.gz'
p6
aS'/scratch/2022_summer_internship/mjcho/FCD_project/WES_A_strelka/workspace/genomeSegment.tmpdir/somatic.snvs.unfiltered.chromId_000_1_0000.vcf.gz'
p7
aS'/scratch/2022_summer_internship/mjcho/FCD_project/WES_A_strelka/workspace/genomeSegment.tmpdir/somatic.snvs.unfiltered.chromId_000_1_0001.vcf.gz'
p8
aS'/scratch/2022_summer_internship/mjcho/FCD_project/WES_A_strelka/workspace/genomeSegment.tmpdir/somatic.snvs.unfiltered.chromId_000_1_0002.vcf.gz'
p9
aS'/scratch/2022_summer_internship/mjcho/FCD_project/WES_A_strelka/workspace/genomeSegment.tmpdir/somatic.snvs.unfiltered.chromId_000_1_0003.vcf.gz'
p10
aS'/scratch/2022_summer_internship/mjcho/FCD_project/WES_A_strelka/workspace/genomeSegment.tmpdir/somatic.snvs.unfiltered.chromId_000_1_0004.vcf.gz'
p11
aS'/scratch/2022_summer_internship/mjcho/FCD_project/WES_A_strelka/workspace/genomeSegment.tmpdir/somatic.snvs.unfiltered.chromId_000_1_0005.vcf.gz'
p12
aS'/scratch/2022_summer_internship/mjcho/FCD_project/WES_A_strelka/workspace/genomeSegment.tmpdir/somatic.snvs.unfiltered.chromId_000_1_0006.vcf.gz'
p13
aS'/scratch/2022_summer_internship/mjcho/FCD_project/WES_A_strelka/workspace/genomeSegment.tmpdir/somatic.snvs.unfiltered.chromId_000_1_0007.vcf.gz'
p14
aS'/scratch/2022_summer_internship/mjcho/FCD_project/WES_A_strelka/workspace/genomeSegment.tmpdir/somatic.snvs.unfiltered.chromId_000_1_0008.vcf.gz'
p15
aS'/scratch/2022_summer_internship/mjcho/FCD_project/WES_A_strelka/workspace/genomeSegment.tmpdir/somatic.snvs.unfiltered.chromId_000_1_0009.vcf.gz'
p16
aS'/scratch/2022_summer_internship/mjcho/FCD_project/WES_A_strelka/workspace/genomeSegment.tmpdir/somatic.snvs.unfiltered.chromId_000_1_0010.vcf.gz'
p17
aS'/scratch/2022_summer_internship/mjcho/FCD_project/WES_A_strelka/workspace/genomeSegment.tmpdir/somatic.snvs.unfiltered.chromId_000_1_0011.vcf.gz'
p18
aS'/scratch/2022_summer_internship/mjcho/FCD_project/WES_A_strelka/workspace/genomeSegment.tmpdir/somatic.snvs.unfiltered.chromId_000_1_0012.vcf.gz'
p19
aS'/scratch/2022_summer_internship/mjcho/FCD_project/WES_A_strelka/workspace/genomeSegment.tmpdir/somatic.snvs.unfiltered.chromId_000_1_0013.vcf.gz'
p20
aS'/scratch/2022_summer_internship/mjcho/FCD_project/WES_A_strelka/workspace/genomeSegment.tmpdir/somatic.snvs.unfiltered.chromId_000_1_0014.vcf.gz'
p21
aS'/scratch/2022_summer_internship/mjcho/FCD_project/WES_A_strelka/workspace/genomeSegment.tmpdir/somatic.snvs.unfiltered.chromId_000_1_0015.vcf.gz'
p22
aS'/scratch/2022_summer_internship/mjcho/FCD_project/WES_A_strelka/workspace/genomeSegment.tmpdir/somatic.snvs.unfiltered.chromId_000_1_0016.vcf.gz'
p23
aS'/scratch/2022_summer_internship/mjcho/FCD_project/WES_A_strelka/workspace/genomeSegment.tmpdir/somatic.snvs.unfiltered.chromId_000_1_0017.vcf.gz'
p24
aS'/scratch/2022_summer_internship/mjcho/FCD_project/WES_A_strelka/workspace/genomeSegment.tmpdir/somatic.snvs.unfiltered.chromId_000_1_0018.vcf.gz'
p25
aS'/scratch/2022_summer_internship/mjcho/FCD_project/WES_A_strelka/workspace/genomeSegment.tmpdir/somatic.snvs.unfiltered.chromId_000_1_0019.vcf.gz'
p26
aS'/scratch/2022_summer_internship/mjcho/FCD_project/WES_A_strelka/workspace/genomeSegment.tmpdir/somatic.snvs.unfiltered.chromId_000_1_0020.vcf.gz'
p27
aS'/scratch/2022_summer_internship/mjcho/FCD_project/WES_A_strelka/workspace/genomeSegment.tmpdir/somatic.snvs.unfiltered.chromId_001_2_0000.vcf.gz'
p28
aS'/scratch/2022_summer_internship/mjcho/FCD_project/WES_A_strelka/workspace/genomeSegment.tmpdir/somatic.snvs.unfiltered.chromId_001_2_0001.vcf.gz'
p29
aS'/scratch/2022_summer_internship/mjcho/FCD_project/WES_A_strelka/workspace/genomeSegment.tmpdir/somatic.snvs.unfiltered.chromId_001_2_0002.vcf.gz'
p30
aS'/scratch/2022_summer_internship/mjcho/FCD_project/WES_A_strelka/workspace/genomeSegment.tmpdir/somatic.snvs.unfiltered.chromId_001_2_0003.vcf.gz'
p31
aS'/scratch/2022_summer_internship/mjcho/FCD_project/WES_A_strelka/workspace/genomeSegment.tmpdir/somatic.snvs.unfiltered.chromId_001_2_0004.vcf.gz'
p32
aS'/scratch/2022_summer_internship/mjcho/FCD_project/WES_A_strelka/workspace/genomeSegment.tmpdir/somatic.snvs.unfiltered.chromId_001_2_0005.vcf.gz'
p33
aS'/scratch/2022_summer_internship/mjcho/FCD_project/WES_A_strelka/workspace/genomeSegment.tmpdir/somatic.snvs.unfiltered.chromId_001_2_0006.vcf.gz'
p34
aS'/scratch/2022_summer_internship/mjcho/FCD_project/WES_A_strelka/workspace/genomeSegment.tmpdir/somatic.snvs.unfiltered.chromId_001_2_0007.vcf.gz'
p35
aS'/scratch/2022_summer_internship/mjcho/FCD_project/WES_A_strelka/workspace/genomeSegment.tmpdir/somatic.snvs.unfiltered.chromId_001_2_0008.vcf.gz'
p36
aS'/scratch/2022_summer_internship/mjcho/FCD_project/WES_A_strelka/workspace/genomeSegment.tmpdir/somatic.snvs.unfiltered.chromId_001_2_0009.vcf.gz'
p37
aS'/scratch/2022_summer_internship/mjcho/FCD_project/WES_A_strelka/workspace/genomeSegment.tmpdir/somatic.snvs.unfiltered.chromId_001_2_0010.vcf.gz'
p38
aS'/scratch/2022_summer_internship/mjcho/FCD_project/WES_A_strelka/workspace/genomeSegment.tmpdir/somatic.snvs.unfiltered.chromId_001_2_0011.vcf.gz'
p39
aS'/scratch/2022_summer_internship/mjcho/FCD_project/WES_A_strelka/workspace/genomeSegment.tmpdir/somatic.snvs.unfiltered.chromId_001_2_0012.vcf.gz'
p40
aS'/scratch/2022_summer_internship/mjcho/FCD_project/WES_A_strelka/workspace/genomeSegment.tmpdir/somatic.snvs.unfiltered.chromId_001_2_0013.vcf.gz'
p41
aS'/scratch/2022_summer_internship/mjcho/FCD_project/WES_A_strelka/workspace/genomeSegment.tmpdir/somatic.snvs.unfiltered.chromId_001_2_0014.vcf.gz'
p42
aS'/scratch/2022_summer_internship/mjcho/FCD_project/WES_A_strelka/workspace/genomeSegment.tmpdir/somatic.snvs.unfiltered.chromId_001_2_0015.vcf.gz'
p43
aS'/scratch/2022_summer_internship/mjcho/FCD_project/WES_A_strelka/workspace/genomeSegment.tmpdir/somatic.snvs.unfiltered.chromId_001_2_0016.vcf.gz'
p44
aS'/scratch/2022_summer_internship/mjcho/FCD_project/WES_A_strelka/workspace/genomeSegment.tmpdir/somatic.snvs.unfiltered.chromId_001_2_0017.vcf.gz'
p45
aS'/scratch/2022_summer_internship/mjcho/FCD_project/WES_A_strelka/workspace/genomeSegment.tmpdir/somatic.snvs.unfiltered.chromId_001_2_0018.vcf.gz'
p46
aS'/scratch/2022_summer_internship/mjcho/FCD_project/WES_A_strelka/workspace/genomeSegment.tmpdir/somatic.snvs.unfiltered.chromId_001_2_0019.vcf.gz'
p47
aS'/scratch/2022_summer_internship/mjcho/FCD_project/WES_A_strelka/workspace/genomeSegment.tmpdir/somatic.snvs.unfiltered.chromId_001_2_0020.vcf.gz'
p48
aS'/scratch/2022_summer_internship/mjcho/FCD_project/WES_A_strelka/workspace/genomeSegment.tmpdir/somatic.snvs.unfiltered.chromId_002_3_0000.vcf.gz'
p49
aS'/scratch/2022_summer_internship/mjcho/FCD_project/WES_A_strelka/workspace/genomeSegment.tmpdir/somatic.snvs.unfiltered.chromId_002_3_0001.vcf.gz'
p50
aS'/scratch/2022_summer_internship/mjcho/FCD_project/WES_A_strelka/workspace/genomeSegment.tmpdir/somatic.snvs.unfiltered.chromId_002_3_0002.vcf.gz'
p51
aS'/scratch/2022_summer_internship/mjcho/FCD_project/WES_A_strelka/workspace/genomeSegment.tmpdir/somatic.snvs.unfiltered.chromId_002_3_0003.vcf.gz'
p52
aS'/scratch/2022_summer_internship/mjcho/FCD_project/WES_A_strelka/workspace/genomeSegment.tmpdir/somatic.snvs.unfiltered.chromId_002_3_0004.vcf.gz'
p53
aS'/scratch/2022_summer_internship/mjcho/FCD_project/WES_A_strelka/workspace/genomeSegment.tmpdir/somatic.snvs.unfiltered.chromId_002_3_0005.vcf.gz'
p54
aS'/scratch/2022_summer_internship/mjcho/FCD_project/WES_A_strelka/workspace/genomeSegment.tmpdir/somatic.snvs.unfiltered.chromId_002_3_0006.vcf.gz'
p55
aS'/scratch/2022_summer_internship/mjcho/FCD_project/WES_A_strelka/workspace/genomeSegment.tmpdir/somatic.snvs.unfiltered.chromId_002_3_0007.vcf.gz'
p56
aS'/scratch/2022_summer_internship/mjcho/FCD_project/WES_A_strelka/workspace/genomeSegment.tmpdir/somatic.snvs.unfiltered.chromId_002_3_0008.vcf.gz'
p57
aS'/scratch/2022_summer_internship/mjcho/FCD_project/WES_A_strelka/workspace/genomeSegment.tmpdir/somatic.snvs.unfiltered.chromId_002_3_0009.vcf.gz'
p58
aS'/scratch/2022_summer_internship/mjcho/FCD_project/WES_A_strelka/workspace/genomeSegment.tmpdir/somatic.snvs.unfiltered.chromId_002_3_0010.vcf.gz'
p59
aS'/scratch/2022_summer_internship/mjcho/FCD_project/WES_A_strelka/workspace/genomeSegment.tmpdir/somatic.snvs.unfiltered.chromId_002_3_0011.vcf.gz'
p60
aS'/scratch/2022_summer_internship/mjcho/FCD_project/WES_A_strelka/workspace/genomeSegment.tmpdir/somatic.snvs.unfiltered.chromId_002_3_0012.vcf.gz'
p61
aS'/scratch/2022_summer_internship/mjcho/FCD_project/WES_A_strelka/workspace/genomeSegment.tmpdir/somatic.snvs.unfiltered.chromId_002_3_0013.vcf.gz'
p62
aS'/scratch/2022_summer_internship/mjcho/FCD_project/WES_A_strelka/workspace/genomeSegment.tmpdir/somatic.snvs.unfiltered.chromId_002_3_0014.vcf.gz'
p63
aS'/scratch/2022_summer_internship/mjcho/FCD_project/WES_A_strelka/workspace/genomeSegment.tmpdir/somatic.snvs.unfiltered.chromId_002_3_0015.vcf.gz'
p64
aS'/scratch/2022_summer_internship/mjcho/FCD_project/WES_A_strelka/workspace/genomeSegment.tmpdir/somatic.snvs.unfiltered.chromId_002_3_0016.vcf.gz'
p65
aS'/scratch/2022_summer_internship/mjcho/FCD_project/WES_A_strelka/workspace/genomeSegment.tmpdir/somatic.snvs.unfiltered.chromId_003_4_0000.vcf.gz'
p66
aS'/scratch/2022_summer_internship/mjcho/FCD_project/WES_A_strelka/workspace/genomeSegment.tmpdir/somatic.snvs.unfiltered.chromId_003_4_0001.vcf.gz'
p67
aS'/scratch/2022_summer_internship/mjcho/FCD_project/WES_A_strelka/workspace/genomeSegment.tmpdir/somatic.snvs.unfiltered.chromId_003_4_0002.vcf.gz'
p68
aS'/scratch/2022_summer_internship/mjcho/FCD_project/WES_A_strelka/workspace/genomeSegment.tmpdir/somatic.snvs.unfiltered.chromId_003_4_0003.vcf.gz'
p69
aS'/scratch/2022_summer_internship/mjcho/FCD_project/WES_A_strelka/workspace/genomeSegment.tmpdir/somatic.snvs.unfiltered.chromId_003_4_0004.vcf.gz'
p70
aS'/scratch/2022_summer_internship/mjcho/FCD_project/WES_A_strelka/workspace/genomeSegment.tmpdir/somatic.snvs.unfiltered.chromId_003_4_0005.vcf.gz'
p71
aS'/scratch/2022_summer_internship/mjcho/FCD_project/WES_A_strelka/workspace/genomeSegment.tmpdir/somatic.snvs.unfiltered.chromId_003_4_0006.vcf.gz'
p72
aS'/scratch/2022_summer_internship/mjcho/FCD_project/WES_A_strelka/workspace/genomeSegment.tmpdir/somatic.snvs.unfiltered.chromId_003_4_0007.vcf.gz'
p73
aS'/scratch/2022_summer_internship/mjcho/FCD_project/WES_A_strelka/workspace/genomeSegment.tmpdir/somatic.snvs.unfiltered.chromId_003_4_0008.vcf.gz'
p74
aS'/scratch/2022_summer_internship/mjcho/FCD_project/WES_A_strelka/workspace/genomeSegment.tmpdir/somatic.snvs.unfiltered.chromId_003_4_0009.vcf.gz'
p75
aS'/scratch/2022_summer_internship/mjcho/FCD_project/WES_A_strelka/workspace/genomeSegment.tmpdir/somatic.snvs.unfiltered.chromId_003_4_0010.vcf.gz'
p76
aS'/scratch/2022_summer_internship/mjcho/FCD_project/WES_A_strelka/workspace/genomeSegment.tmpdir/somatic.snvs.unfiltered.chromId_003_4_0011.vcf.gz'
p77
aS'/scratch/2022_summer_internship/mjcho/FCD_project/WES_A_strelka/workspace/genomeSegment.tmpdir/somatic.snvs.unfiltered.chromId_003_4_0012.vcf.gz'
p78
aS'/scratch/2022_summer_internship/mjcho/FCD_project/WES_A_strelka/workspace/genomeSegment.tmpdir/somatic.snvs.unfiltered.chromId_003_4_0013.vcf.gz'
p79
aS'/scratch/2022_summer_internship/mjcho/FCD_project/WES_A_strelka/workspace/genomeSegment.tmpdir/somatic.snvs.unfiltered.chromId_003_4_0014.vcf.gz'
p80
aS'/scratch/2022_summer_internship/mjcho/FCD_project/WES_A_strelka/workspace/genomeSegment.tmpdir/somatic.snvs.unfiltered.chromId_003_4_0015.vcf.gz'
p81
aS'/scratch/2022_summer_internship/mjcho/FCD_project/WES_A_strelka/workspace/genomeSegment.tmpdir/somatic.snvs.unfiltered.chromId_004_5_0000.vcf.gz'
p82
aS'/scratch/2022_summer_internship/mjcho/FCD_project/WES_A_strelka/workspace/genomeSegment.tmpdir/somatic.snvs.unfiltered.chromId_004_5_0001.vcf.gz'
p83
aS'/scratch/2022_summer_internship/mjcho/FCD_project/WES_A_strelka/workspace/genomeSegment.tmpdir/somatic.snvs.unfiltered.chromId_004_5_0002.vcf.gz'
p84
aS'/scratch/2022_summer_internship/mjcho/FCD_project/WES_A_strelka/workspace/genomeSegment.tmpdir/somatic.snvs.unfiltered.chromId_004_5_0003.vcf.gz'
p85
aS'/scratch/2022_summer_internship/mjcho/FCD_project/WES_A_strelka/workspace/genomeSegment.tmpdir/somatic.snvs.unfiltered.chromId_004_5_0004.vcf.gz'
p86
aS'/scratch/2022_summer_internship/mjcho/FCD_project/WES_A_strelka/workspace/genomeSegment.tmpdir/somatic.snvs.unfiltered.chromId_004_5_0005.vcf.gz'
p87
aS'/scratch/2022_summer_internship/mjcho/FCD_project/WES_A_strelka/workspace/genomeSegment.tmpdir/somatic.snvs.unfiltered.chromId_004_5_0006.vcf.gz'
p88
aS'/scratch/2022_summer_internship/mjcho/FCD_project/WES_A_strelka/workspace/genomeSegment.tmpdir/somatic.snvs.unfiltered.chromId_004_5_0007.vcf.gz'
p89
aS'/scratch/2022_summer_internship/mjcho/FCD_project/WES_A_strelka/workspace/genomeSegment.tmpdir/somatic.snvs.unfiltered.chromId_004_5_0008.vcf.gz'
p90
aS'/scratch/2022_summer_internship/mjcho/FCD_project/WES_A_strelka/workspace/genomeSegment.tmpdir/somatic.snvs.unfiltered.chromId_004_5_0009.vcf.gz'
p91
aS'/scratch/2022_summer_internship/mjcho/FCD_project/WES_A_strelka/workspace/genomeSegment.tmpdir/somatic.snvs.unfiltered.chromId_004_5_0010.vcf.gz'
p92
aS'/scratch/2022_summer_internship/mjcho/FCD_project/WES_A_strelka/workspace/genomeSegment.tmpdir/somatic.snvs.unfiltered.chromId_004_5_0011.vcf.gz'
p93
aS'/scratch/2022_summer_internship/mjcho/FCD_project/WES_A_strelka/workspace/genomeSegment.tmpdir/somatic.snvs.unfiltered.chromId_004_5_0012.vcf.gz'
p94
aS'/scratch/2022_summer_internship/mjcho/FCD_project/WES_A_strelka/workspace/genomeSegment.tmpdir/somatic.snvs.unfiltered.chromId_004_5_0013.vcf.gz'
p95
aS'/scratch/2022_summer_internship/mjcho/FCD_project/WES_A_strelka/workspace/genomeSegment.tmpdir/somatic.snvs.unfiltered.chromId_004_5_0014.vcf.gz'
p96
aS'/scratch/2022_summer_internship/mjcho/FCD_project/WES_A_strelka/workspace/genomeSegment.tmpdir/somatic.snvs.unfiltered.chromId_004_5_0015.vcf.gz'
p97
aS'/scratch/2022_summer_internship/mjcho/FCD_project/WES_A_strelka/workspace/genomeSegment.tmpdir/somatic.snvs.unfiltered.chromId_005_6_0000.vcf.gz'
p98
aS'/scratch/2022_summer_internship/mjcho/FCD_project/WES_A_strelka/workspace/genomeSegment.tmpdir/somatic.snvs.unfiltered.chromId_005_6_0001.vcf.gz'
p99
aS'/scratch/2022_summer_internship/mjcho/FCD_project/WES_A_strelka/workspace/genomeSegment.tmpdir/somatic.snvs.unfiltered.chromId_005_6_0002.vcf.gz'
p100
aS'/scratch/2022_summer_internship/mjcho/FCD_project/WES_A_strelka/workspace/genomeSegment.tmpdir/somatic.snvs.unfiltered.chromId_005_6_0003.vcf.gz'
p101
aS'/scratch/2022_summer_internship/mjcho/FCD_project/WES_A_strelka/workspace/genomeSegment.tmpdir/somatic.snvs.unfiltered.chromId_005_6_0004.vcf.gz'
p102
aS'/scratch/2022_summer_internship/mjcho/FCD_project/WES_A_strelka/workspace/genomeSegment.tmpdir/somatic.snvs.unfiltered.chromId_005_6_0005.vcf.gz'
p103
aS'/scratch/2022_summer_internship/mjcho/FCD_project/WES_A_strelka/workspace/genomeSegment.tmpdir/somatic.snvs.unfiltered.chromId_005_6_0006.vcf.gz'
p104
aS'/scratch/2022_summer_internship/mjcho/FCD_project/WES_A_strelka/workspace/genomeSegment.tmpdir/somatic.snvs.unfiltered.chromId_005_6_0007.vcf.gz'
p105
aS'/scratch/2022_summer_internship/mjcho/FCD_project/WES_A_strelka/workspace/genomeSegment.tmpdir/somatic.snvs.unfiltered.chromId_005_6_0008.vcf.gz'
p106
aS'/scratch/2022_summer_internship/mjcho/FCD_project/WES_A_strelka/workspace/genomeSegment.tmpdir/somatic.snvs.unfiltered.chromId_005_6_0009.vcf.gz'
p107
aS'/scratch/2022_summer_internship/mjcho/FCD_project/WES_A_strelka/workspace/genomeSegment.tmpdir/somatic.snvs.unfiltered.chromId_005_6_0010.vcf.gz'
p108
aS'/scratch/2022_summer_internship/mjcho/FCD_project/WES_A_strelka/workspace/genomeSegment.tmpdir/somatic.snvs.unfiltered.chromId_005_6_0011.vcf.gz'
p109
aS'/scratch/2022_summer_internship/mjcho/FCD_project/WES_A_strelka/workspace/genomeSegment.tmpdir/somatic.snvs.unfiltered.chromId_005_6_0012.vcf.gz'
p110
aS'/scratch/2022_summer_internship/mjcho/FCD_project/WES_A_strelka/workspace/genomeSegment.tmpdir/somatic.snvs.unfiltered.chromId_005_6_0013.vcf.gz'
p111
aS'/scratch/2022_summer_internship/mjcho/FCD_project/WES_A_strelka/workspace/genomeSegment.tmpdir/somatic.snvs.unfiltered.chromId_005_6_0014.vcf.gz'
p112
aS'/scratch/2022_summer_internship/mjcho/FCD_project/WES_A_strelka/workspace/genomeSegment.tmpdir/somatic.snvs.unfiltered.chromId_006_7_0000.vcf.gz'
p113
aS'/scratch/2022_summer_internship/mjcho/FCD_project/WES_A_strelka/workspace/genomeSegment.tmpdir/somatic.snvs.unfiltered.chromId_006_7_0001.vcf.gz'
p114
aS'/scratch/2022_summer_internship/mjcho/FCD_project/WES_A_strelka/workspace/genomeSegment.tmpdir/somatic.snvs.unfiltered.chromId_006_7_0002.vcf.gz'
p115
aS'/scratch/2022_summer_internship/mjcho/FCD_project/WES_A_strelka/workspace/genomeSegment.tmpdir/somatic.snvs.unfiltered.chromId_006_7_0003.vcf.gz'
p116
aS'/scratch/2022_summer_internship/mjcho/FCD_project/WES_A_strelka/workspace/genomeSegment.tmpdir/somatic.snvs.unfiltered.chromId_006_7_0004.vcf.gz'
p117
aS'/scratch/2022_summer_internship/mjcho/FCD_project/WES_A_strelka/workspace/genomeSegment.tmpdir/somatic.snvs.unfiltered.chromId_006_7_0005.vcf.gz'
p118
aS'/scratch/2022_summer_internship/mjcho/FCD_project/WES_A_strelka/workspace/genomeSegment.tmpdir/somatic.snvs.unfiltered.chromId_006_7_0006.vcf.gz'
p119
aS'/scratch/2022_summer_internship/mjcho/FCD_project/WES_A_strelka/workspace/genomeSegment.tmpdir/somatic.snvs.unfiltered.chromId_006_7_0007.vcf.gz'
p120
aS'/scratch/2022_summer_internship/mjcho/FCD_project/WES_A_strelka/workspace/genomeSegment.tmpdir/somatic.snvs.unfiltered.chromId_006_7_0008.vcf.gz'
p121
aS'/scratch/2022_summer_internship/mjcho/FCD_project/WES_A_strelka/workspace/genomeSegment.tmpdir/somatic.snvs.unfiltered.chromId_006_7_0009.vcf.gz'
p122
aS'/scratch/2022_summer_internship/mjcho/FCD_project/WES_A_strelka/workspace/genomeSegment.tmpdir/somatic.snvs.unfiltered.chromId_006_7_0010.vcf.gz'
p123
aS'/scratch/2022_summer_internship/mjcho/FCD_project/WES_A_strelka/workspace/genomeSegment.tmpdir/somatic.snvs.unfiltered.chromId_006_7_0011.vcf.gz'
p124
aS'/scratch/2022_summer_internship/mjcho/FCD_project/WES_A_strelka/workspace/genomeSegment.tmpdir/somatic.snvs.unfiltered.chromId_006_7_0012.vcf.gz'
p125
aS'/scratch/2022_summer_internship/mjcho/FCD_project/WES_A_strelka/workspace/genomeSegment.tmpdir/somatic.snvs.unfiltered.chromId_006_7_0013.vcf.gz'
p126
aS'/scratch/2022_summer_internship/mjcho/FCD_project/WES_A_strelka/workspace/genomeSegment.tmpdir/somatic.snvs.unfiltered.chromId_007_8_0000.vcf.gz'
p127
aS'/scratch/2022_summer_internship/mjcho/FCD_project/WES_A_strelka/workspace/genomeSegment.tmpdir/somatic.snvs.unfiltered.chromId_007_8_0001.vcf.gz'
p128
aS'/scratch/2022_summer_internship/mjcho/FCD_project/WES_A_strelka/workspace/genomeSegment.tmpdir/somatic.snvs.unfiltered.chromId_007_8_0002.vcf.gz'
p129
aS'/scratch/2022_summer_internship/mjcho/FCD_project/WES_A_strelka/workspace/genomeSegment.tmpdir/somatic.snvs.unfiltered.chromId_007_8_0003.vcf.gz'
p130
aS'/scratch/2022_summer_internship/mjcho/FCD_project/WES_A_strelka/workspace/genomeSegment.tmpdir/somatic.snvs.unfiltered.chromId_007_8_0004.vcf.gz'
p131
aS'/scratch/2022_summer_internship/mjcho/FCD_project/WES_A_strelka/workspace/genomeSegment.tmpdir/somatic.snvs.unfiltered.chromId_007_8_0005.vcf.gz'
p132
aS'/scratch/2022_summer_internship/mjcho/FCD_project/WES_A_strelka/workspace/genomeSegment.tmpdir/somatic.snvs.unfiltered.chromId_007_8_0006.vcf.gz'
p133
aS'/scratch/2022_summer_internship/mjcho/FCD_project/WES_A_strelka/workspace/genomeSegment.tmpdir/somatic.snvs.unfiltered.chromId_007_8_0007.vcf.gz'
p134
aS'/scratch/2022_summer_internship/mjcho/FCD_project/WES_A_strelka/workspace/genomeSegment.tmpdir/somatic.snvs.unfiltered.chromId_007_8_0008.vcf.gz'
p135
aS'/scratch/2022_summer_internship/mjcho/FCD_project/WES_A_strelka/workspace/genomeSegment.tmpdir/somatic.snvs.unfiltered.chromId_007_8_0009.vcf.gz'
p136
aS'/scratch/2022_summer_internship/mjcho/FCD_project/WES_A_strelka/workspace/genomeSegment.tmpdir/somatic.snvs.unfiltered.chromId_007_8_0010.vcf.gz'
p137
aS'/scratch/2022_summer_internship/mjcho/FCD_project/WES_A_strelka/workspace/genomeSegment.tmpdir/somatic.snvs.unfiltered.chromId_007_8_0011.vcf.gz'
p138
aS'/scratch/2022_summer_internship/mjcho/FCD_project/WES_A_strelka/workspace/genomeSegment.tmpdir/somatic.snvs.unfiltered.chromId_007_8_0012.vcf.gz'
p139
aS'/scratch/2022_summer_internship/mjcho/FCD_project/WES_A_strelka/workspace/genomeSegment.tmpdir/somatic.snvs.unfiltered.chromId_008_9_0000.vcf.gz'
p140
aS'/scratch/2022_summer_internship/mjcho/FCD_project/WES_A_strelka/workspace/genomeSegment.tmpdir/somatic.snvs.unfiltered.chromId_008_9_0001.vcf.gz'
p141
aS'/scratch/2022_summer_internship/mjcho/FCD_project/WES_A_strelka/workspace/genomeSegment.tmpdir/somatic.snvs.unfiltered.chromId_008_9_0002.vcf.gz'
p142
aS'/scratch/2022_summer_internship/mjcho/FCD_project/WES_A_strelka/workspace/genomeSegment.tmpdir/somatic.snvs.unfiltered.chromId_008_9_0003.vcf.gz'
p143
aS'/scratch/2022_summer_internship/mjcho/FCD_project/WES_A_strelka/workspace/genomeSegment.tmpdir/somatic.snvs.unfiltered.chromId_008_9_0004.vcf.gz'
p144
aS'/scratch/2022_summer_internship/mjcho/FCD_project/WES_A_strelka/workspace/genomeSegment.tmpdir/somatic.snvs.unfiltered.chromId_008_9_0005.vcf.gz'
p145
aS'/scratch/2022_summer_internship/mjcho/FCD_project/WES_A_strelka/workspace/genomeSegment.tmpdir/somatic.snvs.unfiltered.chromId_008_9_0006.vcf.gz'
p146
aS'/scratch/2022_summer_internship/mjcho/FCD_project/WES_A_strelka/workspace/genomeSegment.tmpdir/somatic.snvs.unfiltered.chromId_008_9_0007.vcf.gz'
p147
aS'/scratch/2022_summer_internship/mjcho/FCD_project/WES_A_strelka/workspace/genomeSegment.tmpdir/somatic.snvs.unfiltered.chromId_008_9_0008.vcf.gz'
p148
aS'/scratch/2022_summer_internship/mjcho/FCD_project/WES_A_strelka/workspace/genomeSegment.tmpdir/somatic.snvs.unfiltered.chromId_008_9_0009.vcf.gz'
p149
aS'/scratch/2022_summer_internship/mjcho/FCD_project/WES_A_strelka/workspace/genomeSegment.tmpdir/somatic.snvs.unfiltered.chromId_008_9_0010.vcf.gz'
p150
aS'/scratch/2022_summer_internship/mjcho/FCD_project/WES_A_strelka/workspace/genomeSegment.tmpdir/somatic.snvs.unfiltered.chromId_008_9_0011.vcf.gz'
p151
aS'/scratch/2022_summer_internship/mjcho/FCD_project/WES_A_strelka/workspace/genomeSegment.tmpdir/somatic.snvs.unfiltered.chromId_009_10_0000.vcf.gz'
p152
aS'/scratch/2022_summer_internship/mjcho/FCD_project/WES_A_strelka/workspace/genomeSegment.tmpdir/somatic.snvs.unfiltered.chromId_009_10_0001.vcf.gz'
p153
aS'/scratch/2022_summer_internship/mjcho/FCD_project/WES_A_strelka/workspace/genomeSegment.tmpdir/somatic.snvs.unfiltered.chromId_009_10_0002.vcf.gz'
p154
aS'/scratch/2022_summer_internship/mjcho/FCD_project/WES_A_strelka/workspace/genomeSegment.tmpdir/somatic.snvs.unfiltered.chromId_009_10_0003.vcf.gz'
p155
aS'/scratch/2022_summer_internship/mjcho/FCD_project/WES_A_strelka/workspace/genomeSegment.tmpdir/somatic.snvs.unfiltered.chromId_009_10_0004.vcf.gz'
p156
aS'/scratch/2022_summer_internship/mjcho/FCD_project/WES_A_strelka/workspace/genomeSegment.tmpdir/somatic.snvs.unfiltered.chromId_009_10_0005.vcf.gz'
p157
aS'/scratch/2022_summer_internship/mjcho/FCD_project/WES_A_strelka/workspace/genomeSegment.tmpdir/somatic.snvs.unfiltered.chromId_009_10_0006.vcf.gz'
p158
aS'/scratch/2022_summer_internship/mjcho/FCD_project/WES_A_strelka/workspace/genomeSegment.tmpdir/somatic.snvs.unfiltered.chromId_009_10_0007.vcf.gz'
p159
aS'/scratch/2022_summer_internship/mjcho/FCD_project/WES_A_strelka/workspace/genomeSegment.tmpdir/somatic.snvs.unfiltered.chromId_009_10_0008.vcf.gz'
p160
aS'/scratch/2022_summer_internship/mjcho/FCD_project/WES_A_strelka/workspace/genomeSegment.tmpdir/somatic.snvs.unfiltered.chromId_009_10_0009.vcf.gz'
p161
aS'/scratch/2022_summer_internship/mjcho/FCD_project/WES_A_strelka/workspace/genomeSegment.tmpdir/somatic.snvs.unfiltered.chromId_009_10_0010.vcf.gz'
p162
aS'/scratch/2022_summer_internship/mjcho/FCD_project/WES_A_strelka/workspace/genomeSegment.tmpdir/somatic.snvs.unfiltered.chromId_009_10_0011.vcf.gz'
p163
aS'/scratch/2022_summer_internship/mjcho/FCD_project/WES_A_strelka/workspace/genomeSegment.tmpdir/somatic.snvs.unfiltered.chromId_010_11_0000.vcf.gz'
p164
aS'/scratch/2022_summer_internship/mjcho/FCD_project/WES_A_strelka/workspace/genomeSegment.tmpdir/somatic.snvs.unfiltered.chromId_010_11_0001.vcf.gz'
p165
aS'/scratch/2022_summer_internship/mjcho/FCD_project/WES_A_strelka/workspace/genomeSegment.tmpdir/somatic.snvs.unfiltered.chromId_010_11_0002.vcf.gz'
p166
aS'/scratch/2022_summer_internship/mjcho/FCD_project/WES_A_strelka/workspace/genomeSegment.tmpdir/somatic.snvs.unfiltered.chromId_010_11_0003.vcf.gz'
p167
aS'/scratch/2022_summer_internship/mjcho/FCD_project/WES_A_strelka/workspace/genomeSegment.tmpdir/somatic.snvs.unfiltered.chromId_010_11_0004.vcf.gz'
p168
aS'/scratch/2022_summer_internship/mjcho/FCD_project/WES_A_strelka/workspace/genomeSegment.tmpdir/somatic.snvs.unfiltered.chromId_010_11_0005.vcf.gz'
p169
aS'/scratch/2022_summer_internship/mjcho/FCD_project/WES_A_strelka/workspace/genomeSegment.tmpdir/somatic.snvs.unfiltered.chromId_010_11_0006.vcf.gz'
p170
aS'/scratch/2022_summer_internship/mjcho/FCD_project/WES_A_strelka/workspace/genomeSegment.tmpdir/somatic.snvs.unfiltered.chromId_010_11_0007.vcf.gz'
p171
aS'/scratch/2022_summer_internship/mjcho/FCD_project/WES_A_strelka/workspace/genomeSegment.tmpdir/somatic.snvs.unfiltered.chromId_010_11_0008.vcf.gz'
p172
aS'/scratch/2022_summer_internship/mjcho/FCD_project/WES_A_strelka/workspace/genomeSegment.tmpdir/somatic.snvs.unfiltered.chromId_010_11_0009.vcf.gz'
p173
aS'/scratch/2022_summer_internship/mjcho/FCD_project/WES_A_strelka/workspace/genomeSegment.tmpdir/somatic.snvs.unfiltered.chromId_010_11_0010.vcf.gz'
p174
aS'/scratch/2022_summer_internship/mjcho/FCD_project/WES_A_strelka/workspace/genomeSegment.tmpdir/somatic.snvs.unfiltered.chromId_010_11_0011.vcf.gz'
p175
aS'/scratch/2022_summer_internship/mjcho/FCD_project/WES_A_strelka/workspace/genomeSegment.tmpdir/somatic.snvs.unfiltered.chromId_011_12_0000.vcf.gz'
p176
aS'/scratch/2022_summer_internship/mjcho/FCD_project/WES_A_strelka/workspace/genomeSegment.tmpdir/somatic.snvs.unfiltered.chromId_011_12_0001.vcf.gz'
p177
aS'/scratch/2022_summer_internship/mjcho/FCD_project/WES_A_strelka/workspace/genomeSegment.tmpdir/somatic.snvs.unfiltered.chromId_011_12_0002.vcf.gz'
p178
aS'/scratch/2022_summer_internship/mjcho/FCD_project/WES_A_strelka/workspace/genomeSegment.tmpdir/somatic.snvs.unfiltered.chromId_011_12_0003.vcf.gz'
p179
aS'/scratch/2022_summer_internship/mjcho/FCD_project/WES_A_strelka/workspace/genomeSegment.tmpdir/somatic.snvs.unfiltered.chromId_011_12_0004.vcf.gz'
p180
aS'/scratch/2022_summer_internship/mjcho/FCD_project/WES_A_strelka/workspace/genomeSegment.tmpdir/somatic.snvs.unfiltered.chromId_011_12_0005.vcf.gz'
p181
aS'/scratch/2022_summer_internship/mjcho/FCD_project/WES_A_strelka/workspace/genomeSegment.tmpdir/somatic.snvs.unfiltered.chromId_011_12_0006.vcf.gz'
p182
aS'/scratch/2022_summer_internship/mjcho/FCD_project/WES_A_strelka/workspace/genomeSegment.tmpdir/somatic.snvs.unfiltered.chromId_011_12_0007.vcf.gz'
p183
aS'/scratch/2022_summer_internship/mjcho/FCD_project/WES_A_strelka/workspace/genomeSegment.tmpdir/somatic.snvs.unfiltered.chromId_011_12_0008.vcf.gz'
p184
aS'/scratch/2022_summer_internship/mjcho/FCD_project/WES_A_strelka/workspace/genomeSegment.tmpdir/somatic.snvs.unfiltered.chromId_011_12_0009.vcf.gz'
p185
aS'/scratch/2022_summer_internship/mjcho/FCD_project/WES_A_strelka/workspace/genomeSegment.tmpdir/somatic.snvs.unfiltered.chromId_011_12_0010.vcf.gz'
p186
aS'/scratch/2022_summer_internship/mjcho/FCD_project/WES_A_strelka/workspace/genomeSegment.tmpdir/somatic.snvs.unfiltered.chromId_011_12_0011.vcf.gz'
p187
aS'/scratch/2022_summer_internship/mjcho/FCD_project/WES_A_strelka/workspace/genomeSegment.tmpdir/somatic.snvs.unfiltered.chromId_012_13_0000.vcf.gz'
p188
aS'/scratch/2022_summer_internship/mjcho/FCD_project/WES_A_strelka/workspace/genomeSegment.tmpdir/somatic.snvs.unfiltered.chromId_012_13_0001.vcf.gz'
p189
aS'/scratch/2022_summer_internship/mjcho/FCD_project/WES_A_strelka/workspace/genomeSegment.tmpdir/somatic.snvs.unfiltered.chromId_012_13_0002.vcf.gz'
p190
aS'/scratch/2022_summer_internship/mjcho/FCD_project/WES_A_strelka/workspace/genomeSegment.tmpdir/somatic.snvs.unfiltered.chromId_012_13_0003.vcf.gz'
p191
aS'/scratch/2022_summer_internship/mjcho/FCD_project/WES_A_strelka/workspace/genomeSegment.tmpdir/somatic.snvs.unfiltered.chromId_012_13_0004.vcf.gz'
p192
aS'/scratch/2022_summer_internship/mjcho/FCD_project/WES_A_strelka/workspace/genomeSegment.tmpdir/somatic.snvs.unfiltered.chromId_012_13_0005.vcf.gz'
p193
aS'/scratch/2022_summer_internship/mjcho/FCD_project/WES_A_strelka/workspace/genomeSegment.tmpdir/somatic.snvs.unfiltered.chromId_012_13_0006.vcf.gz'
p194
aS'/scratch/2022_summer_internship/mjcho/FCD_project/WES_A_strelka/workspace/genomeSegment.tmpdir/somatic.snvs.unfiltered.chromId_012_13_0007.vcf.gz'
p195
aS'/scratch/2022_summer_internship/mjcho/FCD_project/WES_A_strelka/workspace/genomeSegment.tmpdir/somatic.snvs.unfiltered.chromId_012_13_0008.vcf.gz'
p196
aS'/scratch/2022_summer_internship/mjcho/FCD_project/WES_A_strelka/workspace/genomeSegment.tmpdir/somatic.snvs.unfiltered.chromId_012_13_0009.vcf.gz'
p197
aS'/scratch/2022_summer_internship/mjcho/FCD_project/WES_A_strelka/workspace/genomeSegment.tmpdir/somatic.snvs.unfiltered.chromId_013_14_0000.vcf.gz'
p198
aS'/scratch/2022_summer_internship/mjcho/FCD_project/WES_A_strelka/workspace/genomeSegment.tmpdir/somatic.snvs.unfiltered.chromId_013_14_0001.vcf.gz'
p199
aS'/scratch/2022_summer_internship/mjcho/FCD_project/WES_A_strelka/workspace/genomeSegment.tmpdir/somatic.snvs.unfiltered.chromId_013_14_0002.vcf.gz'
p200
aS'/scratch/2022_summer_internship/mjcho/FCD_project/WES_A_strelka/workspace/genomeSegment.tmpdir/somatic.snvs.unfiltered.chromId_013_14_0003.vcf.gz'
p201
aS'/scratch/2022_summer_internship/mjcho/FCD_project/WES_A_strelka/workspace/genomeSegment.tmpdir/somatic.snvs.unfiltered.chromId_013_14_0004.vcf.gz'
p202
aS'/scratch/2022_summer_internship/mjcho/FCD_project/WES_A_strelka/workspace/genomeSegment.tmpdir/somatic.snvs.unfiltered.chromId_013_14_0005.vcf.gz'
p203
aS'/scratch/2022_summer_internship/mjcho/FCD_project/WES_A_strelka/workspace/genomeSegment.tmpdir/somatic.snvs.unfiltered.chromId_013_14_0006.vcf.gz'
p204
aS'/scratch/2022_summer_internship/mjcho/FCD_project/WES_A_strelka/workspace/genomeSegment.tmpdir/somatic.snvs.unfiltered.chromId_013_14_0007.vcf.gz'
p205
aS'/scratch/2022_summer_internship/mjcho/FCD_project/WES_A_strelka/workspace/genomeSegment.tmpdir/somatic.snvs.unfiltered.chromId_013_14_0008.vcf.gz'
p206
aS'/scratch/2022_summer_internship/mjcho/FCD_project/WES_A_strelka/workspace/genomeSegment.tmpdir/somatic.snvs.unfiltered.chromId_014_15_0000.vcf.gz'
p207
aS'/scratch/2022_summer_internship/mjcho/FCD_project/WES_A_strelka/workspace/genomeSegment.tmpdir/somatic.snvs.unfiltered.chromId_014_15_0001.vcf.gz'
p208
aS'/scratch/2022_summer_internship/mjcho/FCD_project/WES_A_strelka/workspace/genomeSegment.tmpdir/somatic.snvs.unfiltered.chromId_014_15_0002.vcf.gz'
p209
aS'/scratch/2022_summer_internship/mjcho/FCD_project/WES_A_strelka/workspace/genomeSegment.tmpdir/somatic.snvs.unfiltered.chromId_014_15_0003.vcf.gz'
p210
aS'/scratch/2022_summer_internship/mjcho/FCD_project/WES_A_strelka/workspace/genomeSegment.tmpdir/somatic.snvs.unfiltered.chromId_014_15_0004.vcf.gz'
p211
aS'/scratch/2022_summer_internship/mjcho/FCD_project/WES_A_strelka/workspace/genomeSegment.tmpdir/somatic.snvs.unfiltered.chromId_014_15_0005.vcf.gz'
p212
aS'/scratch/2022_summer_internship/mjcho/FCD_project/WES_A_strelka/workspace/genomeSegment.tmpdir/somatic.snvs.unfiltered.chromId_014_15_0006.vcf.gz'
p213
aS'/scratch/2022_summer_internship/mjcho/FCD_project/WES_A_strelka/workspace/genomeSegment.tmpdir/somatic.snvs.unfiltered.chromId_014_15_0007.vcf.gz'
p214
aS'/scratch/2022_summer_internship/mjcho/FCD_project/WES_A_strelka/workspace/genomeSegment.tmpdir/somatic.snvs.unfiltered.chromId_014_15_0008.vcf.gz'
p215
aS'/scratch/2022_summer_internship/mjcho/FCD_project/WES_A_strelka/workspace/genomeSegment.tmpdir/somatic.snvs.unfiltered.chromId_015_16_0000.vcf.gz'
p216
aS'/scratch/2022_summer_internship/mjcho/FCD_project/WES_A_strelka/workspace/genomeSegment.tmpdir/somatic.snvs.unfiltered.chromId_015_16_0001.vcf.gz'
p217
aS'/scratch/2022_summer_internship/mjcho/FCD_project/WES_A_strelka/workspace/genomeSegment.tmpdir/somatic.snvs.unfiltered.chromId_015_16_0002.vcf.gz'
p218
aS'/scratch/2022_summer_internship/mjcho/FCD_project/WES_A_strelka/workspace/genomeSegment.tmpdir/somatic.snvs.unfiltered.chromId_015_16_0003.vcf.gz'
p219
aS'/scratch/2022_summer_internship/mjcho/FCD_project/WES_A_strelka/workspace/genomeSegment.tmpdir/somatic.snvs.unfiltered.chromId_015_16_0004.vcf.gz'
p220
aS'/scratch/2022_summer_internship/mjcho/FCD_project/WES_A_strelka/workspace/genomeSegment.tmpdir/somatic.snvs.unfiltered.chromId_015_16_0005.vcf.gz'
p221
aS'/scratch/2022_summer_internship/mjcho/FCD_project/WES_A_strelka/workspace/genomeSegment.tmpdir/somatic.snvs.unfiltered.chromId_015_16_0006.vcf.gz'
p222
aS'/scratch/2022_summer_internship/mjcho/FCD_project/WES_A_strelka/workspace/genomeSegment.tmpdir/somatic.snvs.unfiltered.chromId_015_16_0007.vcf.gz'
p223
aS'/scratch/2022_summer_internship/mjcho/FCD_project/WES_A_strelka/workspace/genomeSegment.tmpdir/somatic.snvs.unfiltered.chromId_016_17_0000.vcf.gz'
p224
aS'/scratch/2022_summer_internship/mjcho/FCD_project/WES_A_strelka/workspace/genomeSegment.tmpdir/somatic.snvs.unfiltered.chromId_016_17_0001.vcf.gz'
p225
aS'/scratch/2022_summer_internship/mjcho/FCD_project/WES_A_strelka/workspace/genomeSegment.tmpdir/somatic.snvs.unfiltered.chromId_016_17_0002.vcf.gz'
p226
aS'/scratch/2022_summer_internship/mjcho/FCD_project/WES_A_strelka/workspace/genomeSegment.tmpdir/somatic.snvs.unfiltered.chromId_016_17_0003.vcf.gz'
p227
aS'/scratch/2022_summer_internship/mjcho/FCD_project/WES_A_strelka/workspace/genomeSegment.tmpdir/somatic.snvs.unfiltered.chromId_016_17_0004.vcf.gz'
p228
aS'/scratch/2022_summer_internship/mjcho/FCD_project/WES_A_strelka/workspace/genomeSegment.tmpdir/somatic.snvs.unfiltered.chromId_016_17_0005.vcf.gz'
p229
aS'/scratch/2022_summer_internship/mjcho/FCD_project/WES_A_strelka/workspace/genomeSegment.tmpdir/somatic.snvs.unfiltered.chromId_016_17_0006.vcf.gz'
p230
aS'/scratch/2022_summer_internship/mjcho/FCD_project/WES_A_strelka/workspace/genomeSegment.tmpdir/somatic.snvs.unfiltered.chromId_017_18_0000.vcf.gz'
p231
aS'/scratch/2022_summer_internship/mjcho/FCD_project/WES_A_strelka/workspace/genomeSegment.tmpdir/somatic.snvs.unfiltered.chromId_017_18_0001.vcf.gz'
p232
aS'/scratch/2022_summer_internship/mjcho/FCD_project/WES_A_strelka/workspace/genomeSegment.tmpdir/somatic.snvs.unfiltered.chromId_017_18_0002.vcf.gz'
p233
aS'/scratch/2022_summer_internship/mjcho/FCD_project/WES_A_strelka/workspace/genomeSegment.tmpdir/somatic.snvs.unfiltered.chromId_017_18_0003.vcf.gz'
p234
aS'/scratch/2022_summer_internship/mjcho/FCD_project/WES_A_strelka/workspace/genomeSegment.tmpdir/somatic.snvs.unfiltered.chromId_017_18_0004.vcf.gz'
p235
aS'/scratch/2022_summer_internship/mjcho/FCD_project/WES_A_strelka/workspace/genomeSegment.tmpdir/somatic.snvs.unfiltered.chromId_017_18_0005.vcf.gz'
p236
aS'/scratch/2022_summer_internship/mjcho/FCD_project/WES_A_strelka/workspace/genomeSegment.tmpdir/somatic.snvs.unfiltered.chromId_017_18_0006.vcf.gz'
p237
aS'/scratch/2022_summer_internship/mjcho/FCD_project/WES_A_strelka/workspace/genomeSegment.tmpdir/somatic.snvs.unfiltered.chromId_018_19_0000.vcf.gz'
p238
aS'/scratch/2022_summer_internship/mjcho/FCD_project/WES_A_strelka/workspace/genomeSegment.tmpdir/somatic.snvs.unfiltered.chromId_018_19_0001.vcf.gz'
p239
aS'/scratch/2022_summer_internship/mjcho/FCD_project/WES_A_strelka/workspace/genomeSegment.tmpdir/somatic.snvs.unfiltered.chromId_018_19_0002.vcf.gz'
p240
aS'/scratch/2022_summer_internship/mjcho/FCD_project/WES_A_strelka/workspace/genomeSegment.tmpdir/somatic.snvs.unfiltered.chromId_018_19_0003.vcf.gz'
p241
aS'/scratch/2022_summer_internship/mjcho/FCD_project/WES_A_strelka/workspace/genomeSegment.tmpdir/somatic.snvs.unfiltered.chromId_018_19_0004.vcf.gz'
p242
aS'/scratch/2022_summer_internship/mjcho/FCD_project/WES_A_strelka/workspace/genomeSegment.tmpdir/somatic.snvs.unfiltered.chromId_019_20_0000.vcf.gz'
p243
aS'/scratch/2022_summer_internship/mjcho/FCD_project/WES_A_strelka/workspace/genomeSegment.tmpdir/somatic.snvs.unfiltered.chromId_019_20_0001.vcf.gz'
p244
aS'/scratch/2022_summer_internship/mjcho/FCD_project/WES_A_strelka/workspace/genomeSegment.tmpdir/somatic.snvs.unfiltered.chromId_019_20_0002.vcf.gz'
p245
aS'/scratch/2022_summer_internship/mjcho/FCD_project/WES_A_strelka/workspace/genomeSegment.tmpdir/somatic.snvs.unfiltered.chromId_019_20_0003.vcf.gz'
p246
aS'/scratch/2022_summer_internship/mjcho/FCD_project/WES_A_strelka/workspace/genomeSegment.tmpdir/somatic.snvs.unfiltered.chromId_019_20_0004.vcf.gz'
p247
aS'/scratch/2022_summer_internship/mjcho/FCD_project/WES_A_strelka/workspace/genomeSegment.tmpdir/somatic.snvs.unfiltered.chromId_019_20_0005.vcf.gz'
p248
aS'/scratch/2022_summer_internship/mjcho/FCD_project/WES_A_strelka/workspace/genomeSegment.tmpdir/somatic.snvs.unfiltered.chromId_020_21_0000.vcf.gz'
p249
aS'/scratch/2022_summer_internship/mjcho/FCD_project/WES_A_strelka/workspace/genomeSegment.tmpdir/somatic.snvs.unfiltered.chromId_020_21_0001.vcf.gz'
p250
aS'/scratch/2022_summer_internship/mjcho/FCD_project/WES_A_strelka/workspace/genomeSegment.tmpdir/somatic.snvs.unfiltered.chromId_020_21_0002.vcf.gz'
p251
aS'/scratch/2022_summer_internship/mjcho/FCD_project/WES_A_strelka/workspace/genomeSegment.tmpdir/somatic.snvs.unfiltered.chromId_020_21_0003.vcf.gz'
p252
aS'/scratch/2022_summer_internship/mjcho/FCD_project/WES_A_strelka/workspace/genomeSegment.tmpdir/somatic.snvs.unfiltered.chromId_020_21_0004.vcf.gz'
p253
aS'/scratch/2022_summer_internship/mjcho/FCD_project/WES_A_strelka/workspace/genomeSegment.tmpdir/somatic.snvs.unfiltered.chromId_021_22_0000.vcf.gz'
p254
aS'/scratch/2022_summer_internship/mjcho/FCD_project/WES_A_strelka/workspace/genomeSegment.tmpdir/somatic.snvs.unfiltered.chromId_021_22_0001.vcf.gz'
p255
aS'/scratch/2022_summer_internship/mjcho/FCD_project/WES_A_strelka/workspace/genomeSegment.tmpdir/somatic.snvs.unfiltered.chromId_021_22_0002.vcf.gz'
p256
aS'/scratch/2022_summer_internship/mjcho/FCD_project/WES_A_strelka/workspace/genomeSegment.tmpdir/somatic.snvs.unfiltered.chromId_021_22_0003.vcf.gz'
p257
aS'/scratch/2022_summer_internship/mjcho/FCD_project/WES_A_strelka/workspace/genomeSegment.tmpdir/somatic.snvs.unfiltered.chromId_021_22_0004.vcf.gz'
p258
aS'/scratch/2022_summer_internship/mjcho/FCD_project/WES_A_strelka/workspace/genomeSegment.tmpdir/somatic.snvs.unfiltered.chromId_022_X_0000.vcf.gz'
p259
aS'/scratch/2022_summer_internship/mjcho/FCD_project/WES_A_strelka/workspace/genomeSegment.tmpdir/somatic.snvs.unfiltered.chromId_022_X_0001.vcf.gz'
p260
aS'/scratch/2022_summer_internship/mjcho/FCD_project/WES_A_strelka/workspace/genomeSegment.tmpdir/somatic.snvs.unfiltered.chromId_022_X_0002.vcf.gz'
p261
aS'/scratch/2022_summer_internship/mjcho/FCD_project/WES_A_strelka/workspace/genomeSegment.tmpdir/somatic.snvs.unfiltered.chromId_022_X_0003.vcf.gz'
p262
aS'/scratch/2022_summer_internship/mjcho/FCD_project/WES_A_strelka/workspace/genomeSegment.tmpdir/somatic.snvs.unfiltered.chromId_022_X_0004.vcf.gz'
p263
aS'/scratch/2022_summer_internship/mjcho/FCD_project/WES_A_strelka/workspace/genomeSegment.tmpdir/somatic.snvs.unfiltered.chromId_022_X_0005.vcf.gz'
p264
aS'/scratch/2022_summer_internship/mjcho/FCD_project/WES_A_strelka/workspace/genomeSegment.tmpdir/somatic.snvs.unfiltered.chromId_022_X_0006.vcf.gz'
p265
aS'/scratch/2022_summer_internship/mjcho/FCD_project/WES_A_strelka/workspace/genomeSegment.tmpdir/somatic.snvs.unfiltered.chromId_022_X_0007.vcf.gz'
p266
aS'/scratch/2022_summer_internship/mjcho/FCD_project/WES_A_strelka/workspace/genomeSegment.tmpdir/somatic.snvs.unfiltered.chromId_022_X_0008.vcf.gz'
p267
aS'/scratch/2022_summer_internship/mjcho/FCD_project/WES_A_strelka/workspace/genomeSegment.tmpdir/somatic.snvs.unfiltered.chromId_022_X_0009.vcf.gz'
p268
aS'/scratch/2022_summer_internship/mjcho/FCD_project/WES_A_strelka/workspace/genomeSegment.tmpdir/somatic.snvs.unfiltered.chromId_022_X_0010.vcf.gz'
p269
aS'/scratch/2022_summer_internship/mjcho/FCD_project/WES_A_strelka/workspace/genomeSegment.tmpdir/somatic.snvs.unfiltered.chromId_022_X_0011.vcf.gz'
p270
aS'/scratch/2022_summer_internship/mjcho/FCD_project/WES_A_strelka/workspace/genomeSegment.tmpdir/somatic.snvs.unfiltered.chromId_022_X_0012.vcf.gz'
p271
aS'/scratch/2022_summer_internship/mjcho/FCD_project/WES_A_strelka/workspace/genomeSegment.tmpdir/somatic.snvs.unfiltered.chromId_023_Y_0000.vcf.gz'
p272
aS'/scratch/2022_summer_internship/mjcho/FCD_project/WES_A_strelka/workspace/genomeSegment.tmpdir/somatic.snvs.unfiltered.chromId_023_Y_0001.vcf.gz'
p273
aS'/scratch/2022_summer_internship/mjcho/FCD_project/WES_A_strelka/workspace/genomeSegment.tmpdir/somatic.snvs.unfiltered.chromId_023_Y_0002.vcf.gz'
p274
aS'/scratch/2022_summer_internship/mjcho/FCD_project/WES_A_strelka/workspace/genomeSegment.tmpdir/somatic.snvs.unfiltered.chromId_023_Y_0003.vcf.gz'
p275
aS'/scratch/2022_summer_internship/mjcho/FCD_project/WES_A_strelka/workspace/genomeSegment.tmpdir/somatic.snvs.unfiltered.chromId_023_Y_0004.vcf.gz'
p276
asS'errFile'
p277
S'/scratch/2022_summer_internship/mjcho/FCD_project/WES_A_strelka/workspace/pyflow.data/logs/pyflow_tasks_stderr_log.txt'
p278
sS'outFile'
p279
S'/scratch/2022_summer_internship/mjcho/FCD_project/WES_A_strelka/workspace/pyflow.data/logs/pyflow_tasks_stdout_log.txt'
p280
sS'env'
p281
NsS'nCores'
p282
I1
sS'cwd'
p283
S''
p284
s.