(dp0
S'isShellCmd'
p1
I00
sS'cmd'
p2
(lp3
S'mkdir'
p4
aS'-p'
p5
aS'/scratch/2022_summer_internship/mjcho/FCD_project/WES_B_strelka/workspace/genomeSegment.tmpdir'
p6
asS'errFile'
p7
S'/scratch/2022_summer_internship/mjcho/FCD_project/WES_B_strelka/workspace/pyflow.data/logs/pyflow_tasks_stderr_log.txt'
p8
sS'outFile'
p9
S'/scratch/2022_summer_internship/mjcho/FCD_project/WES_B_strelka/workspace/pyflow.data/logs/pyflow_tasks_stdout_log.txt'
p10
sS'env'
p11
NsS'nCores'
p12
I1
sS'cwd'
p13
S''
p14
s.