(dp0
S'isShellCmd'
p1
I00
sS'cmd'
p2
(lp3
S'/opt/biogrids/x86_64-linux/strelka/2.9.2/libexec/MergeRunStats'
p4
aS'--stats-file'
p5
aS'/scratch/2022_summer_internship/mjcho/FCD_project/Targeted_C_strelka/workspace/genomeSegment.tmpdir/runStats.chromId_000_1_0000.xml'
p6
ag5
aS'/scratch/2022_summer_internship/mjcho/FCD_project/Targeted_C_strelka/workspace/genomeSegment.tmpdir/runStats.chromId_000_1_0001.xml'
p7
ag5
aS'/scratch/2022_summer_internship/mjcho/FCD_project/Targeted_C_strelka/workspace/genomeSegment.tmpdir/runStats.chromId_000_1_0002.xml'
p8
ag5
aS'/scratch/2022_summer_internship/mjcho/FCD_project/Targeted_C_strelka/workspace/genomeSegment.tmpdir/runStats.chromId_000_1_0003.xml'
p9
ag5
aS'/scratch/2022_summer_internship/mjcho/FCD_project/Targeted_C_strelka/workspace/genomeSegment.tmpdir/runStats.chromId_000_1_0004.xml'
p10
ag5
aS'/scratch/2022_summer_internship/mjcho/FCD_project/Targeted_C_strelka/workspace/genomeSegment.tmpdir/runStats.chromId_000_1_0005.xml'
p11
ag5
aS'/scratch/2022_summer_internship/mjcho/FCD_project/Targeted_C_strelka/workspace/genomeSegment.tmpdir/runStats.chromId_000_1_0006.xml'
p12
ag5
aS'/scratch/2022_summer_internship/mjcho/FCD_project/Targeted_C_strelka/workspace/genomeSegment.tmpdir/runStats.chromId_000_1_0007.xml'
p13
ag5
aS'/scratch/2022_summer_internship/mjcho/FCD_project/Targeted_C_strelka/workspace/genomeSegment.tmpdir/runStats.chromId_000_1_0008.xml'
p14
ag5
aS'/scratch/2022_summer_internship/mjcho/FCD_project/Targeted_C_strelka/workspace/genomeSegment.tmpdir/runStats.chromId_000_1_0009.xml'
p15
ag5
aS'/scratch/2022_summer_internship/mjcho/FCD_project/Targeted_C_strelka/workspace/genomeSegment.tmpdir/runStats.chromId_000_1_0010.xml'
p16
ag5
aS'/scratch/2022_summer_internship/mjcho/FCD_project/Targeted_C_strelka/workspace/genomeSegment.tmpdir/runStats.chromId_000_1_0011.xml'
p17
ag5
aS'/scratch/2022_summer_internship/mjcho/FCD_project/Targeted_C_strelka/workspace/genomeSegment.tmpdir/runStats.chromId_000_1_0012.xml'
p18
ag5
aS'/scratch/2022_summer_internship/mjcho/FCD_project/Targeted_C_strelka/workspace/genomeSegment.tmpdir/runStats.chromId_000_1_0013.xml'
p19
ag5
aS'/scratch/2022_summer_internship/mjcho/FCD_project/Targeted_C_strelka/workspace/genomeSegment.tmpdir/runStats.chromId_000_1_0014.xml'
p20
ag5
aS'/scratch/2022_summer_internship/mjcho/FCD_project/Targeted_C_strelka/workspace/genomeSegment.tmpdir/runStats.chromId_000_1_0015.xml'
p21
ag5
aS'/scratch/2022_summer_internship/mjcho/FCD_project/Targeted_C_strelka/workspace/genomeSegment.tmpdir/runStats.chromId_000_1_0016.xml'
p22
ag5
aS'/scratch/2022_summer_internship/mjcho/FCD_project/Targeted_C_strelka/workspace/genomeSegment.tmpdir/runStats.chromId_000_1_0017.xml'
p23
ag5
aS'/scratch/2022_summer_internship/mjcho/FCD_project/Targeted_C_strelka/workspace/genomeSegment.tmpdir/runStats.chromId_000_1_0018.xml'
p24
ag5
aS'/scratch/2022_summer_internship/mjcho/FCD_project/Targeted_C_strelka/workspace/genomeSegment.tmpdir/runStats.chromId_000_1_0019.xml'
p25
ag5
aS'/scratch/2022_summer_internship/mjcho/FCD_project/Targeted_C_strelka/workspace/genomeSegment.tmpdir/runStats.chromId_000_1_0020.xml'
p26
ag5
aS'/scratch/2022_summer_internship/mjcho/FCD_project/Targeted_C_strelka/workspace/genomeSegment.tmpdir/runStats.chromId_001_2_0000.xml'
p27
ag5
aS'/scratch/2022_summer_internship/mjcho/FCD_project/Targeted_C_strelka/workspace/genomeSegment.tmpdir/runStats.chromId_001_2_0001.xml'
p28
ag5
aS'/scratch/2022_summer_internship/mjcho/FCD_project/Targeted_C_strelka/workspace/genomeSegment.tmpdir/runStats.chromId_001_2_0002.xml'
p29
ag5
aS'/scratch/2022_summer_internship/mjcho/FCD_project/Targeted_C_strelka/workspace/genomeSegment.tmpdir/runStats.chromId_001_2_0003.xml'
p30
ag5
aS'/scratch/2022_summer_internship/mjcho/FCD_project/Targeted_C_strelka/workspace/genomeSegment.tmpdir/runStats.chromId_001_2_0004.xml'
p31
ag5
aS'/scratch/2022_summer_internship/mjcho/FCD_project/Targeted_C_strelka/workspace/genomeSegment.tmpdir/runStats.chromId_001_2_0005.xml'
p32
ag5
aS'/scratch/2022_summer_internship/mjcho/FCD_project/Targeted_C_strelka/workspace/genomeSegment.tmpdir/runStats.chromId_001_2_0006.xml'
p33
ag5
aS'/scratch/2022_summer_internship/mjcho/FCD_project/Targeted_C_strelka/workspace/genomeSegment.tmpdir/runStats.chromId_001_2_0007.xml'
p34
ag5
aS'/scratch/2022_summer_internship/mjcho/FCD_project/Targeted_C_strelka/workspace/genomeSegment.tmpdir/runStats.chromId_001_2_0008.xml'
p35
ag5
aS'/scratch/2022_summer_internship/mjcho/FCD_project/Targeted_C_strelka/workspace/genomeSegment.tmpdir/runStats.chromId_001_2_0009.xml'
p36
ag5
aS'/scratch/2022_summer_internship/mjcho/FCD_project/Targeted_C_strelka/workspace/genomeSegment.tmpdir/runStats.chromId_001_2_0010.xml'
p37
ag5
aS'/scratch/2022_summer_internship/mjcho/FCD_project/Targeted_C_strelka/workspace/genomeSegment.tmpdir/runStats.chromId_001_2_0011.xml'
p38
ag5
aS'/scratch/2022_summer_internship/mjcho/FCD_project/Targeted_C_strelka/workspace/genomeSegment.tmpdir/runStats.chromId_001_2_0012.xml'
p39
ag5
aS'/scratch/2022_summer_internship/mjcho/FCD_project/Targeted_C_strelka/workspace/genomeSegment.tmpdir/runStats.chromId_001_2_0013.xml'
p40
ag5
aS'/scratch/2022_summer_internship/mjcho/FCD_project/Targeted_C_strelka/workspace/genomeSegment.tmpdir/runStats.chromId_001_2_0014.xml'
p41
ag5
aS'/scratch/2022_summer_internship/mjcho/FCD_project/Targeted_C_strelka/workspace/genomeSegment.tmpdir/runStats.chromId_001_2_0015.xml'
p42
ag5
aS'/scratch/2022_summer_internship/mjcho/FCD_project/Targeted_C_strelka/workspace/genomeSegment.tmpdir/runStats.chromId_001_2_0016.xml'
p43
ag5
aS'/scratch/2022_summer_internship/mjcho/FCD_project/Targeted_C_strelka/workspace/genomeSegment.tmpdir/runStats.chromId_001_2_0017.xml'
p44
ag5
aS'/scratch/2022_summer_internship/mjcho/FCD_project/Targeted_C_strelka/workspace/genomeSegment.tmpdir/runStats.chromId_001_2_0018.xml'
p45
ag5
aS'/scratch/2022_summer_internship/mjcho/FCD_project/Targeted_C_strelka/workspace/genomeSegment.tmpdir/runStats.chromId_001_2_0019.xml'
p46
ag5
aS'/scratch/2022_summer_internship/mjcho/FCD_project/Targeted_C_strelka/workspace/genomeSegment.tmpdir/runStats.chromId_001_2_0020.xml'
p47
ag5
aS'/scratch/2022_summer_internship/mjcho/FCD_project/Targeted_C_strelka/workspace/genomeSegment.tmpdir/runStats.chromId_002_3_0000.xml'
p48
ag5
aS'/scratch/2022_summer_internship/mjcho/FCD_project/Targeted_C_strelka/workspace/genomeSegment.tmpdir/runStats.chromId_002_3_0001.xml'
p49
ag5
aS'/scratch/2022_summer_internship/mjcho/FCD_project/Targeted_C_strelka/workspace/genomeSegment.tmpdir/runStats.chromId_002_3_0002.xml'
p50
ag5
aS'/scratch/2022_summer_internship/mjcho/FCD_project/Targeted_C_strelka/workspace/genomeSegment.tmpdir/runStats.chromId_002_3_0003.xml'
p51
ag5
aS'/scratch/2022_summer_internship/mjcho/FCD_project/Targeted_C_strelka/workspace/genomeSegment.tmpdir/runStats.chromId_002_3_0004.xml'
p52
ag5
aS'/scratch/2022_summer_internship/mjcho/FCD_project/Targeted_C_strelka/workspace/genomeSegment.tmpdir/runStats.chromId_002_3_0005.xml'
p53
ag5
aS'/scratch/2022_summer_internship/mjcho/FCD_project/Targeted_C_strelka/workspace/genomeSegment.tmpdir/runStats.chromId_002_3_0006.xml'
p54
ag5
aS'/scratch/2022_summer_internship/mjcho/FCD_project/Targeted_C_strelka/workspace/genomeSegment.tmpdir/runStats.chromId_002_3_0007.xml'
p55
ag5
aS'/scratch/2022_summer_internship/mjcho/FCD_project/Targeted_C_strelka/workspace/genomeSegment.tmpdir/runStats.chromId_002_3_0008.xml'
p56
ag5
aS'/scratch/2022_summer_internship/mjcho/FCD_project/Targeted_C_strelka/workspace/genomeSegment.tmpdir/runStats.chromId_002_3_0009.xml'
p57
ag5
aS'/scratch/2022_summer_internship/mjcho/FCD_project/Targeted_C_strelka/workspace/genomeSegment.tmpdir/runStats.chromId_002_3_0010.xml'
p58
ag5
aS'/scratch/2022_summer_internship/mjcho/FCD_project/Targeted_C_strelka/workspace/genomeSegment.tmpdir/runStats.chromId_002_3_0011.xml'
p59
ag5
aS'/scratch/2022_summer_internship/mjcho/FCD_project/Targeted_C_strelka/workspace/genomeSegment.tmpdir/runStats.chromId_002_3_0012.xml'
p60
ag5
aS'/scratch/2022_summer_internship/mjcho/FCD_project/Targeted_C_strelka/workspace/genomeSegment.tmpdir/runStats.chromId_002_3_0013.xml'
p61
ag5
aS'/scratch/2022_summer_internship/mjcho/FCD_project/Targeted_C_strelka/workspace/genomeSegment.tmpdir/runStats.chromId_002_3_0014.xml'
p62
ag5
aS'/scratch/2022_summer_internship/mjcho/FCD_project/Targeted_C_strelka/workspace/genomeSegment.tmpdir/runStats.chromId_002_3_0015.xml'
p63
ag5
aS'/scratch/2022_summer_internship/mjcho/FCD_project/Targeted_C_strelka/workspace/genomeSegment.tmpdir/runStats.chromId_002_3_0016.xml'
p64
ag5
aS'/scratch/2022_summer_internship/mjcho/FCD_project/Targeted_C_strelka/workspace/genomeSegment.tmpdir/runStats.chromId_004_5_0000.xml'
p65
ag5
aS'/scratch/2022_summer_internship/mjcho/FCD_project/Targeted_C_strelka/workspace/genomeSegment.tmpdir/runStats.chromId_004_5_0001.xml'
p66
ag5
aS'/scratch/2022_summer_internship/mjcho/FCD_project/Targeted_C_strelka/workspace/genomeSegment.tmpdir/runStats.chromId_004_5_0002.xml'
p67
ag5
aS'/scratch/2022_summer_internship/mjcho/FCD_project/Targeted_C_strelka/workspace/genomeSegment.tmpdir/runStats.chromId_004_5_0003.xml'
p68
ag5
aS'/scratch/2022_summer_internship/mjcho/FCD_project/Targeted_C_strelka/workspace/genomeSegment.tmpdir/runStats.chromId_004_5_0004.xml'
p69
ag5
aS'/scratch/2022_summer_internship/mjcho/FCD_project/Targeted_C_strelka/workspace/genomeSegment.tmpdir/runStats.chromId_004_5_0005.xml'
p70
ag5
aS'/scratch/2022_summer_internship/mjcho/FCD_project/Targeted_C_strelka/workspace/genomeSegment.tmpdir/runStats.chromId_004_5_0006.xml'
p71
ag5
aS'/scratch/2022_summer_internship/mjcho/FCD_project/Targeted_C_strelka/workspace/genomeSegment.tmpdir/runStats.chromId_004_5_0007.xml'
p72
ag5
aS'/scratch/2022_summer_internship/mjcho/FCD_project/Targeted_C_strelka/workspace/genomeSegment.tmpdir/runStats.chromId_004_5_0008.xml'
p73
ag5
aS'/scratch/2022_summer_internship/mjcho/FCD_project/Targeted_C_strelka/workspace/genomeSegment.tmpdir/runStats.chromId_004_5_0009.xml'
p74
ag5
aS'/scratch/2022_summer_internship/mjcho/FCD_project/Targeted_C_strelka/workspace/genomeSegment.tmpdir/runStats.chromId_004_5_0010.xml'
p75
ag5
aS'/scratch/2022_summer_internship/mjcho/FCD_project/Targeted_C_strelka/workspace/genomeSegment.tmpdir/runStats.chromId_004_5_0011.xml'
p76
ag5
aS'/scratch/2022_summer_internship/mjcho/FCD_project/Targeted_C_strelka/workspace/genomeSegment.tmpdir/runStats.chromId_004_5_0012.xml'
p77
ag5
aS'/scratch/2022_summer_internship/mjcho/FCD_project/Targeted_C_strelka/workspace/genomeSegment.tmpdir/runStats.chromId_004_5_0013.xml'
p78
ag5
aS'/scratch/2022_summer_internship/mjcho/FCD_project/Targeted_C_strelka/workspace/genomeSegment.tmpdir/runStats.chromId_004_5_0014.xml'
p79
ag5
aS'/scratch/2022_summer_internship/mjcho/FCD_project/Targeted_C_strelka/workspace/genomeSegment.tmpdir/runStats.chromId_004_5_0015.xml'
p80
ag5
aS'/scratch/2022_summer_internship/mjcho/FCD_project/Targeted_C_strelka/workspace/genomeSegment.tmpdir/runStats.chromId_005_6_0000.xml'
p81
ag5
aS'/scratch/2022_summer_internship/mjcho/FCD_project/Targeted_C_strelka/workspace/genomeSegment.tmpdir/runStats.chromId_005_6_0001.xml'
p82
ag5
aS'/scratch/2022_summer_internship/mjcho/FCD_project/Targeted_C_strelka/workspace/genomeSegment.tmpdir/runStats.chromId_005_6_0002.xml'
p83
ag5
aS'/scratch/2022_summer_internship/mjcho/FCD_project/Targeted_C_strelka/workspace/genomeSegment.tmpdir/runStats.chromId_005_6_0003.xml'
p84
ag5
aS'/scratch/2022_summer_internship/mjcho/FCD_project/Targeted_C_strelka/workspace/genomeSegment.tmpdir/runStats.chromId_005_6_0004.xml'
p85
ag5
aS'/scratch/2022_summer_internship/mjcho/FCD_project/Targeted_C_strelka/workspace/genomeSegment.tmpdir/runStats.chromId_005_6_0005.xml'
p86
ag5
aS'/scratch/2022_summer_internship/mjcho/FCD_project/Targeted_C_strelka/workspace/genomeSegment.tmpdir/runStats.chromId_005_6_0006.xml'
p87
ag5
aS'/scratch/2022_summer_internship/mjcho/FCD_project/Targeted_C_strelka/workspace/genomeSegment.tmpdir/runStats.chromId_005_6_0007.xml'
p88
ag5
aS'/scratch/2022_summer_internship/mjcho/FCD_project/Targeted_C_strelka/workspace/genomeSegment.tmpdir/runStats.chromId_005_6_0008.xml'
p89
ag5
aS'/scratch/2022_summer_internship/mjcho/FCD_project/Targeted_C_strelka/workspace/genomeSegment.tmpdir/runStats.chromId_005_6_0009.xml'
p90
ag5
aS'/scratch/2022_summer_internship/mjcho/FCD_project/Targeted_C_strelka/workspace/genomeSegment.tmpdir/runStats.chromId_005_6_0010.xml'
p91
ag5
aS'/scratch/2022_summer_internship/mjcho/FCD_project/Targeted_C_strelka/workspace/genomeSegment.tmpdir/runStats.chromId_005_6_0011.xml'
p92
ag5
aS'/scratch/2022_summer_internship/mjcho/FCD_project/Targeted_C_strelka/workspace/genomeSegment.tmpdir/runStats.chromId_005_6_0012.xml'
p93
ag5
aS'/scratch/2022_summer_internship/mjcho/FCD_project/Targeted_C_strelka/workspace/genomeSegment.tmpdir/runStats.chromId_005_6_0013.xml'
p94
ag5
aS'/scratch/2022_summer_internship/mjcho/FCD_project/Targeted_C_strelka/workspace/genomeSegment.tmpdir/runStats.chromId_005_6_0014.xml'
p95
ag5
aS'/scratch/2022_summer_internship/mjcho/FCD_project/Targeted_C_strelka/workspace/genomeSegment.tmpdir/runStats.chromId_006_7_0000.xml'
p96
ag5
aS'/scratch/2022_summer_internship/mjcho/FCD_project/Targeted_C_strelka/workspace/genomeSegment.tmpdir/runStats.chromId_006_7_0001.xml'
p97
ag5
aS'/scratch/2022_summer_internship/mjcho/FCD_project/Targeted_C_strelka/workspace/genomeSegment.tmpdir/runStats.chromId_006_7_0002.xml'
p98
ag5
aS'/scratch/2022_summer_internship/mjcho/FCD_project/Targeted_C_strelka/workspace/genomeSegment.tmpdir/runStats.chromId_006_7_0003.xml'
p99
ag5
aS'/scratch/2022_summer_internship/mjcho/FCD_project/Targeted_C_strelka/workspace/genomeSegment.tmpdir/runStats.chromId_006_7_0004.xml'
p100
ag5
aS'/scratch/2022_summer_internship/mjcho/FCD_project/Targeted_C_strelka/workspace/genomeSegment.tmpdir/runStats.chromId_006_7_0005.xml'
p101
ag5
aS'/scratch/2022_summer_internship/mjcho/FCD_project/Targeted_C_strelka/workspace/genomeSegment.tmpdir/runStats.chromId_006_7_0006.xml'
p102
ag5
aS'/scratch/2022_summer_internship/mjcho/FCD_project/Targeted_C_strelka/workspace/genomeSegment.tmpdir/runStats.chromId_006_7_0007.xml'
p103
ag5
aS'/scratch/2022_summer_internship/mjcho/FCD_project/Targeted_C_strelka/workspace/genomeSegment.tmpdir/runStats.chromId_006_7_0008.xml'
p104
ag5
aS'/scratch/2022_summer_internship/mjcho/FCD_project/Targeted_C_strelka/workspace/genomeSegment.tmpdir/runStats.chromId_006_7_0009.xml'
p105
ag5
aS'/scratch/2022_summer_internship/mjcho/FCD_project/Targeted_C_strelka/workspace/genomeSegment.tmpdir/runStats.chromId_006_7_0010.xml'
p106
ag5
aS'/scratch/2022_summer_internship/mjcho/FCD_project/Targeted_C_strelka/workspace/genomeSegment.tmpdir/runStats.chromId_006_7_0011.xml'
p107
ag5
aS'/scratch/2022_summer_internship/mjcho/FCD_project/Targeted_C_strelka/workspace/genomeSegment.tmpdir/runStats.chromId_006_7_0012.xml'
p108
ag5
aS'/scratch/2022_summer_internship/mjcho/FCD_project/Targeted_C_strelka/workspace/genomeSegment.tmpdir/runStats.chromId_006_7_0013.xml'
p109
ag5
aS'/scratch/2022_summer_internship/mjcho/FCD_project/Targeted_C_strelka/workspace/genomeSegment.tmpdir/runStats.chromId_008_9_0000.xml'
p110
ag5
aS'/scratch/2022_summer_internship/mjcho/FCD_project/Targeted_C_strelka/workspace/genomeSegment.tmpdir/runStats.chromId_008_9_0001.xml'
p111
ag5
aS'/scratch/2022_summer_internship/mjcho/FCD_project/Targeted_C_strelka/workspace/genomeSegment.tmpdir/runStats.chromId_008_9_0002.xml'
p112
ag5
aS'/scratch/2022_summer_internship/mjcho/FCD_project/Targeted_C_strelka/workspace/genomeSegment.tmpdir/runStats.chromId_008_9_0003.xml'
p113
ag5
aS'/scratch/2022_summer_internship/mjcho/FCD_project/Targeted_C_strelka/workspace/genomeSegment.tmpdir/runStats.chromId_008_9_0004.xml'
p114
ag5
aS'/scratch/2022_summer_internship/mjcho/FCD_project/Targeted_C_strelka/workspace/genomeSegment.tmpdir/runStats.chromId_008_9_0005.xml'
p115
ag5
aS'/scratch/2022_summer_internship/mjcho/FCD_project/Targeted_C_strelka/workspace/genomeSegment.tmpdir/runStats.chromId_008_9_0006.xml'
p116
ag5
aS'/scratch/2022_summer_internship/mjcho/FCD_project/Targeted_C_strelka/workspace/genomeSegment.tmpdir/runStats.chromId_008_9_0007.xml'
p117
ag5
aS'/scratch/2022_summer_internship/mjcho/FCD_project/Targeted_C_strelka/workspace/genomeSegment.tmpdir/runStats.chromId_008_9_0008.xml'
p118
ag5
aS'/scratch/2022_summer_internship/mjcho/FCD_project/Targeted_C_strelka/workspace/genomeSegment.tmpdir/runStats.chromId_008_9_0009.xml'
p119
ag5
aS'/scratch/2022_summer_internship/mjcho/FCD_project/Targeted_C_strelka/workspace/genomeSegment.tmpdir/runStats.chromId_008_9_0010.xml'
p120
ag5
aS'/scratch/2022_summer_internship/mjcho/FCD_project/Targeted_C_strelka/workspace/genomeSegment.tmpdir/runStats.chromId_008_9_0011.xml'
p121
ag5
aS'/scratch/2022_summer_internship/mjcho/FCD_project/Targeted_C_strelka/workspace/genomeSegment.tmpdir/runStats.chromId_009_10_0000.xml'
p122
ag5
aS'/scratch/2022_summer_internship/mjcho/FCD_project/Targeted_C_strelka/workspace/genomeSegment.tmpdir/runStats.chromId_009_10_0001.xml'
p123
ag5
aS'/scratch/2022_summer_internship/mjcho/FCD_project/Targeted_C_strelka/workspace/genomeSegment.tmpdir/runStats.chromId_009_10_0002.xml'
p124
ag5
aS'/scratch/2022_summer_internship/mjcho/FCD_project/Targeted_C_strelka/workspace/genomeSegment.tmpdir/runStats.chromId_009_10_0003.xml'
p125
ag5
aS'/scratch/2022_summer_internship/mjcho/FCD_project/Targeted_C_strelka/workspace/genomeSegment.tmpdir/runStats.chromId_009_10_0004.xml'
p126
ag5
aS'/scratch/2022_summer_internship/mjcho/FCD_project/Targeted_C_strelka/workspace/genomeSegment.tmpdir/runStats.chromId_009_10_0005.xml'
p127
ag5
aS'/scratch/2022_summer_internship/mjcho/FCD_project/Targeted_C_strelka/workspace/genomeSegment.tmpdir/runStats.chromId_009_10_0006.xml'
p128
ag5
aS'/scratch/2022_summer_internship/mjcho/FCD_project/Targeted_C_strelka/workspace/genomeSegment.tmpdir/runStats.chromId_009_10_0007.xml'
p129
ag5
aS'/scratch/2022_summer_internship/mjcho/FCD_project/Targeted_C_strelka/workspace/genomeSegment.tmpdir/runStats.chromId_009_10_0008.xml'
p130
ag5
aS'/scratch/2022_summer_internship/mjcho/FCD_project/Targeted_C_strelka/workspace/genomeSegment.tmpdir/runStats.chromId_009_10_0009.xml'
p131
ag5
aS'/scratch/2022_summer_internship/mjcho/FCD_project/Targeted_C_strelka/workspace/genomeSegment.tmpdir/runStats.chromId_009_10_0010.xml'
p132
ag5
aS'/scratch/2022_summer_internship/mjcho/FCD_project/Targeted_C_strelka/workspace/genomeSegment.tmpdir/runStats.chromId_009_10_0011.xml'
p133
ag5
aS'/scratch/2022_summer_internship/mjcho/FCD_project/Targeted_C_strelka/workspace/genomeSegment.tmpdir/runStats.chromId_011_12_0000.xml'
p134
ag5
aS'/scratch/2022_summer_internship/mjcho/FCD_project/Targeted_C_strelka/workspace/genomeSegment.tmpdir/runStats.chromId_011_12_0001.xml'
p135
ag5
aS'/scratch/2022_summer_internship/mjcho/FCD_project/Targeted_C_strelka/workspace/genomeSegment.tmpdir/runStats.chromId_011_12_0002.xml'
p136
ag5
aS'/scratch/2022_summer_internship/mjcho/FCD_project/Targeted_C_strelka/workspace/genomeSegment.tmpdir/runStats.chromId_011_12_0003.xml'
p137
ag5
aS'/scratch/2022_summer_internship/mjcho/FCD_project/Targeted_C_strelka/workspace/genomeSegment.tmpdir/runStats.chromId_011_12_0004.xml'
p138
ag5
aS'/scratch/2022_summer_internship/mjcho/FCD_project/Targeted_C_strelka/workspace/genomeSegment.tmpdir/runStats.chromId_011_12_0005.xml'
p139
ag5
aS'/scratch/2022_summer_internship/mjcho/FCD_project/Targeted_C_strelka/workspace/genomeSegment.tmpdir/runStats.chromId_011_12_0006.xml'
p140
ag5
aS'/scratch/2022_summer_internship/mjcho/FCD_project/Targeted_C_strelka/workspace/genomeSegment.tmpdir/runStats.chromId_011_12_0007.xml'
p141
ag5
aS'/scratch/2022_summer_internship/mjcho/FCD_project/Targeted_C_strelka/workspace/genomeSegment.tmpdir/runStats.chromId_011_12_0008.xml'
p142
ag5
aS'/scratch/2022_summer_internship/mjcho/FCD_project/Targeted_C_strelka/workspace/genomeSegment.tmpdir/runStats.chromId_011_12_0009.xml'
p143
ag5
aS'/scratch/2022_summer_internship/mjcho/FCD_project/Targeted_C_strelka/workspace/genomeSegment.tmpdir/runStats.chromId_011_12_0010.xml'
p144
ag5
aS'/scratch/2022_summer_internship/mjcho/FCD_project/Targeted_C_strelka/workspace/genomeSegment.tmpdir/runStats.chromId_011_12_0011.xml'
p145
ag5
aS'/scratch/2022_summer_internship/mjcho/FCD_project/Targeted_C_strelka/workspace/genomeSegment.tmpdir/runStats.chromId_013_14_0000.xml'
p146
ag5
aS'/scratch/2022_summer_internship/mjcho/FCD_project/Targeted_C_strelka/workspace/genomeSegment.tmpdir/runStats.chromId_013_14_0001.xml'
p147
ag5
aS'/scratch/2022_summer_internship/mjcho/FCD_project/Targeted_C_strelka/workspace/genomeSegment.tmpdir/runStats.chromId_013_14_0002.xml'
p148
ag5
aS'/scratch/2022_summer_internship/mjcho/FCD_project/Targeted_C_strelka/workspace/genomeSegment.tmpdir/runStats.chromId_013_14_0003.xml'
p149
ag5
aS'/scratch/2022_summer_internship/mjcho/FCD_project/Targeted_C_strelka/workspace/genomeSegment.tmpdir/runStats.chromId_013_14_0004.xml'
p150
ag5
aS'/scratch/2022_summer_internship/mjcho/FCD_project/Targeted_C_strelka/workspace/genomeSegment.tmpdir/runStats.chromId_013_14_0005.xml'
p151
ag5
aS'/scratch/2022_summer_internship/mjcho/FCD_project/Targeted_C_strelka/workspace/genomeSegment.tmpdir/runStats.chromId_013_14_0006.xml'
p152
ag5
aS'/scratch/2022_summer_internship/mjcho/FCD_project/Targeted_C_strelka/workspace/genomeSegment.tmpdir/runStats.chromId_013_14_0007.xml'
p153
ag5
aS'/scratch/2022_summer_internship/mjcho/FCD_project/Targeted_C_strelka/workspace/genomeSegment.tmpdir/runStats.chromId_013_14_0008.xml'
p154
ag5
aS'/scratch/2022_summer_internship/mjcho/FCD_project/Targeted_C_strelka/workspace/genomeSegment.tmpdir/runStats.chromId_014_15_0000.xml'
p155
ag5
aS'/scratch/2022_summer_internship/mjcho/FCD_project/Targeted_C_strelka/workspace/genomeSegment.tmpdir/runStats.chromId_014_15_0001.xml'
p156
ag5
aS'/scratch/2022_summer_internship/mjcho/FCD_project/Targeted_C_strelka/workspace/genomeSegment.tmpdir/runStats.chromId_014_15_0002.xml'
p157
ag5
aS'/scratch/2022_summer_internship/mjcho/FCD_project/Targeted_C_strelka/workspace/genomeSegment.tmpdir/runStats.chromId_014_15_0003.xml'
p158
ag5
aS'/scratch/2022_summer_internship/mjcho/FCD_project/Targeted_C_strelka/workspace/genomeSegment.tmpdir/runStats.chromId_014_15_0004.xml'
p159
ag5
aS'/scratch/2022_summer_internship/mjcho/FCD_project/Targeted_C_strelka/workspace/genomeSegment.tmpdir/runStats.chromId_014_15_0005.xml'
p160
ag5
aS'/scratch/2022_summer_internship/mjcho/FCD_project/Targeted_C_strelka/workspace/genomeSegment.tmpdir/runStats.chromId_014_15_0006.xml'
p161
ag5
aS'/scratch/2022_summer_internship/mjcho/FCD_project/Targeted_C_strelka/workspace/genomeSegment.tmpdir/runStats.chromId_014_15_0007.xml'
p162
ag5
aS'/scratch/2022_summer_internship/mjcho/FCD_project/Targeted_C_strelka/workspace/genomeSegment.tmpdir/runStats.chromId_014_15_0008.xml'
p163
ag5
aS'/scratch/2022_summer_internship/mjcho/FCD_project/Targeted_C_strelka/workspace/genomeSegment.tmpdir/runStats.chromId_015_16_0000.xml'
p164
ag5
aS'/scratch/2022_summer_internship/mjcho/FCD_project/Targeted_C_strelka/workspace/genomeSegment.tmpdir/runStats.chromId_015_16_0001.xml'
p165
ag5
aS'/scratch/2022_summer_internship/mjcho/FCD_project/Targeted_C_strelka/workspace/genomeSegment.tmpdir/runStats.chromId_015_16_0002.xml'
p166
ag5
aS'/scratch/2022_summer_internship/mjcho/FCD_project/Targeted_C_strelka/workspace/genomeSegment.tmpdir/runStats.chromId_015_16_0003.xml'
p167
ag5
aS'/scratch/2022_summer_internship/mjcho/FCD_project/Targeted_C_strelka/workspace/genomeSegment.tmpdir/runStats.chromId_015_16_0004.xml'
p168
ag5
aS'/scratch/2022_summer_internship/mjcho/FCD_project/Targeted_C_strelka/workspace/genomeSegment.tmpdir/runStats.chromId_015_16_0005.xml'
p169
ag5
aS'/scratch/2022_summer_internship/mjcho/FCD_project/Targeted_C_strelka/workspace/genomeSegment.tmpdir/runStats.chromId_015_16_0006.xml'
p170
ag5
aS'/scratch/2022_summer_internship/mjcho/FCD_project/Targeted_C_strelka/workspace/genomeSegment.tmpdir/runStats.chromId_015_16_0007.xml'
p171
ag5
aS'/scratch/2022_summer_internship/mjcho/FCD_project/Targeted_C_strelka/workspace/genomeSegment.tmpdir/runStats.chromId_016_17_0000.xml'
p172
ag5
aS'/scratch/2022_summer_internship/mjcho/FCD_project/Targeted_C_strelka/workspace/genomeSegment.tmpdir/runStats.chromId_016_17_0001.xml'
p173
ag5
aS'/scratch/2022_summer_internship/mjcho/FCD_project/Targeted_C_strelka/workspace/genomeSegment.tmpdir/runStats.chromId_016_17_0002.xml'
p174
ag5
aS'/scratch/2022_summer_internship/mjcho/FCD_project/Targeted_C_strelka/workspace/genomeSegment.tmpdir/runStats.chromId_016_17_0003.xml'
p175
ag5
aS'/scratch/2022_summer_internship/mjcho/FCD_project/Targeted_C_strelka/workspace/genomeSegment.tmpdir/runStats.chromId_016_17_0004.xml'
p176
ag5
aS'/scratch/2022_summer_internship/mjcho/FCD_project/Targeted_C_strelka/workspace/genomeSegment.tmpdir/runStats.chromId_016_17_0005.xml'
p177
ag5
aS'/scratch/2022_summer_internship/mjcho/FCD_project/Targeted_C_strelka/workspace/genomeSegment.tmpdir/runStats.chromId_016_17_0006.xml'
p178
ag5
aS'/scratch/2022_summer_internship/mjcho/FCD_project/Targeted_C_strelka/workspace/genomeSegment.tmpdir/runStats.chromId_017_18_0000.xml'
p179
ag5
aS'/scratch/2022_summer_internship/mjcho/FCD_project/Targeted_C_strelka/workspace/genomeSegment.tmpdir/runStats.chromId_017_18_0001.xml'
p180
ag5
aS'/scratch/2022_summer_internship/mjcho/FCD_project/Targeted_C_strelka/workspace/genomeSegment.tmpdir/runStats.chromId_017_18_0002.xml'
p181
ag5
aS'/scratch/2022_summer_internship/mjcho/FCD_project/Targeted_C_strelka/workspace/genomeSegment.tmpdir/runStats.chromId_017_18_0003.xml'
p182
ag5
aS'/scratch/2022_summer_internship/mjcho/FCD_project/Targeted_C_strelka/workspace/genomeSegment.tmpdir/runStats.chromId_017_18_0004.xml'
p183
ag5
aS'/scratch/2022_summer_internship/mjcho/FCD_project/Targeted_C_strelka/workspace/genomeSegment.tmpdir/runStats.chromId_017_18_0005.xml'
p184
ag5
aS'/scratch/2022_summer_internship/mjcho/FCD_project/Targeted_C_strelka/workspace/genomeSegment.tmpdir/runStats.chromId_017_18_0006.xml'
p185
ag5
aS'/scratch/2022_summer_internship/mjcho/FCD_project/Targeted_C_strelka/workspace/genomeSegment.tmpdir/runStats.chromId_018_19_0000.xml'
p186
ag5
aS'/scratch/2022_summer_internship/mjcho/FCD_project/Targeted_C_strelka/workspace/genomeSegment.tmpdir/runStats.chromId_018_19_0001.xml'
p187
ag5
aS'/scratch/2022_summer_internship/mjcho/FCD_project/Targeted_C_strelka/workspace/genomeSegment.tmpdir/runStats.chromId_018_19_0002.xml'
p188
ag5
aS'/scratch/2022_summer_internship/mjcho/FCD_project/Targeted_C_strelka/workspace/genomeSegment.tmpdir/runStats.chromId_018_19_0003.xml'
p189
ag5
aS'/scratch/2022_summer_internship/mjcho/FCD_project/Targeted_C_strelka/workspace/genomeSegment.tmpdir/runStats.chromId_018_19_0004.xml'
p190
ag5
aS'/scratch/2022_summer_internship/mjcho/FCD_project/Targeted_C_strelka/workspace/genomeSegment.tmpdir/runStats.chromId_021_22_0000.xml'
p191
ag5
aS'/scratch/2022_summer_internship/mjcho/FCD_project/Targeted_C_strelka/workspace/genomeSegment.tmpdir/runStats.chromId_021_22_0001.xml'
p192
ag5
aS'/scratch/2022_summer_internship/mjcho/FCD_project/Targeted_C_strelka/workspace/genomeSegment.tmpdir/runStats.chromId_021_22_0002.xml'
p193
ag5
aS'/scratch/2022_summer_internship/mjcho/FCD_project/Targeted_C_strelka/workspace/genomeSegment.tmpdir/runStats.chromId_021_22_0003.xml'
p194
ag5
aS'/scratch/2022_summer_internship/mjcho/FCD_project/Targeted_C_strelka/workspace/genomeSegment.tmpdir/runStats.chromId_021_22_0004.xml'
p195
ag5
aS'/scratch/2022_summer_internship/mjcho/FCD_project/Targeted_C_strelka/workspace/genomeSegment.tmpdir/runStats.chromId_022_X_0000.xml'
p196
ag5
aS'/scratch/2022_summer_internship/mjcho/FCD_project/Targeted_C_strelka/workspace/genomeSegment.tmpdir/runStats.chromId_022_X_0001.xml'
p197
ag5
aS'/scratch/2022_summer_internship/mjcho/FCD_project/Targeted_C_strelka/workspace/genomeSegment.tmpdir/runStats.chromId_022_X_0002.xml'
p198
ag5
aS'/scratch/2022_summer_internship/mjcho/FCD_project/Targeted_C_strelka/workspace/genomeSegment.tmpdir/runStats.chromId_022_X_0003.xml'
p199
ag5
aS'/scratch/2022_summer_internship/mjcho/FCD_project/Targeted_C_strelka/workspace/genomeSegment.tmpdir/runStats.chromId_022_X_0004.xml'
p200
ag5
aS'/scratch/2022_summer_internship/mjcho/FCD_project/Targeted_C_strelka/workspace/genomeSegment.tmpdir/runStats.chromId_022_X_0005.xml'
p201
ag5
aS'/scratch/2022_summer_internship/mjcho/FCD_project/Targeted_C_strelka/workspace/genomeSegment.tmpdir/runStats.chromId_022_X_0006.xml'
p202
ag5
aS'/scratch/2022_summer_internship/mjcho/FCD_project/Targeted_C_strelka/workspace/genomeSegment.tmpdir/runStats.chromId_022_X_0007.xml'
p203
ag5
aS'/scratch/2022_summer_internship/mjcho/FCD_project/Targeted_C_strelka/workspace/genomeSegment.tmpdir/runStats.chromId_022_X_0008.xml'
p204
ag5
aS'/scratch/2022_summer_internship/mjcho/FCD_project/Targeted_C_strelka/workspace/genomeSegment.tmpdir/runStats.chromId_022_X_0009.xml'
p205
ag5
aS'/scratch/2022_summer_internship/mjcho/FCD_project/Targeted_C_strelka/workspace/genomeSegment.tmpdir/runStats.chromId_022_X_0010.xml'
p206
ag5
aS'/scratch/2022_summer_internship/mjcho/FCD_project/Targeted_C_strelka/workspace/genomeSegment.tmpdir/runStats.chromId_022_X_0011.xml'
p207
ag5
aS'/scratch/2022_summer_internship/mjcho/FCD_project/Targeted_C_strelka/workspace/genomeSegment.tmpdir/runStats.chromId_022_X_0012.xml'
p208
aS'--output-file'
p209
aS'/scratch/2022_summer_internship/mjcho/FCD_project/Targeted_C_strelka/results/stats/runStats.xml'
p210
aS'--report-file'
p211
aS'/scratch/2022_summer_internship/mjcho/FCD_project/Targeted_C_strelka/results/stats/runStats.tsv'
p212
asS'errFile'
p213
S'/scratch/2022_summer_internship/mjcho/FCD_project/Targeted_C_strelka/workspace/pyflow.data/logs/pyflow_tasks_stderr_log.txt'
p214
sS'outFile'
p215
S'/scratch/2022_summer_internship/mjcho/FCD_project/Targeted_C_strelka/workspace/pyflow.data/logs/pyflow_tasks_stdout_log.txt'
p216
sS'env'
p217
NsS'nCores'
p218
I1
sS'cwd'
p219
S''
p220
s.