(dp0
S'isShellCmd'
p1
I00
sS'cmd'
p2
(lp3
S'/opt/biogrids/x86_64-linux/strelka/2.9.2/libexec/tabix'
p4
aS'-p'
p5
aS'vcf'
p6
aS'/scratch/2022_summer_internship/mjcho/FCD_project/WES_B_strelka/results/variants/somatic.indels.vcf.gz'
p7
asS'errFile'
p8
S'/scratch/2022_summer_internship/mjcho/FCD_project/WES_B_strelka/workspace/pyflow.data/logs/pyflow_tasks_stderr_log.txt'
p9
sS'outFile'
p10
S'/scratch/2022_summer_internship/mjcho/FCD_project/WES_B_strelka/workspace/pyflow.data/logs/pyflow_tasks_stdout_log.txt'
p11
sS'env'
p12
NsS'nCores'
p13
I1
sS'cwd'
p14
S''
p15
s.