(dp0
S'isShellCmd'
p1
I00
sS'cmd'
p2
(lp3
S'/opt/biogrids/x86_64-linux/strelka/2.9.2/libexec/cat.py'
p4
aS'--output'
p5
aS'/scratch/2022_summer_internship/mjcho/FCD_project/WES_A_strelka/workspace/chromDepth.tsv.tmpdir/chromDepth.tsv.000.txt'
p6
aS'/scratch/2022_summer_internship/mjcho/FCD_project/WES_A_strelka/workspace/chromDepth.tsv.tmpdir/chromDepth.tsv.000.txt.tmpdir/chromDepth.tsv.000.txt_000_1'
p7
aS'/scratch/2022_summer_internship/mjcho/FCD_project/WES_A_strelka/workspace/chromDepth.tsv.tmpdir/chromDepth.tsv.000.txt.tmpdir/chromDepth.tsv.000.txt_001_2'
p8
aS'/scratch/2022_summer_internship/mjcho/FCD_project/WES_A_strelka/workspace/chromDepth.tsv.tmpdir/chromDepth.tsv.000.txt.tmpdir/chromDepth.tsv.000.txt_002_3'
p9
aS'/scratch/2022_summer_internship/mjcho/FCD_project/WES_A_strelka/workspace/chromDepth.tsv.tmpdir/chromDepth.tsv.000.txt.tmpdir/chromDepth.tsv.000.txt_003_4'
p10
aS'/scratch/2022_summer_internship/mjcho/FCD_project/WES_A_strelka/workspace/chromDepth.tsv.tmpdir/chromDepth.tsv.000.txt.tmpdir/chromDepth.tsv.000.txt_004_5'
p11
aS'/scratch/2022_summer_internship/mjcho/FCD_project/WES_A_strelka/workspace/chromDepth.tsv.tmpdir/chromDepth.tsv.000.txt.tmpdir/chromDepth.tsv.000.txt_005_6'
p12
aS'/scratch/2022_summer_internship/mjcho/FCD_project/WES_A_strelka/workspace/chromDepth.tsv.tmpdir/chromDepth.tsv.000.txt.tmpdir/chromDepth.tsv.000.txt_006_7'
p13
aS'/scratch/2022_summer_internship/mjcho/FCD_project/WES_A_strelka/workspace/chromDepth.tsv.tmpdir/chromDepth.tsv.000.txt.tmpdir/chromDepth.tsv.000.txt_007_8'
p14
aS'/scratch/2022_summer_internship/mjcho/FCD_project/WES_A_strelka/workspace/chromDepth.tsv.tmpdir/chromDepth.tsv.000.txt.tmpdir/chromDepth.tsv.000.txt_008_9'
p15
aS'/scratch/2022_summer_internship/mjcho/FCD_project/WES_A_strelka/workspace/chromDepth.tsv.tmpdir/chromDepth.tsv.000.txt.tmpdir/chromDepth.tsv.000.txt_009_10'
p16
aS'/scratch/2022_summer_internship/mjcho/FCD_project/WES_A_strelka/workspace/chromDepth.tsv.tmpdir/chromDepth.tsv.000.txt.tmpdir/chromDepth.tsv.000.txt_010_11'
p17
aS'/scratch/2022_summer_internship/mjcho/FCD_project/WES_A_strelka/workspace/chromDepth.tsv.tmpdir/chromDepth.tsv.000.txt.tmpdir/chromDepth.tsv.000.txt_011_12'
p18
aS'/scratch/2022_summer_internship/mjcho/FCD_project/WES_A_strelka/workspace/chromDepth.tsv.tmpdir/chromDepth.tsv.000.txt.tmpdir/chromDepth.tsv.000.txt_012_13'
p19
aS'/scratch/2022_summer_internship/mjcho/FCD_project/WES_A_strelka/workspace/chromDepth.tsv.tmpdir/chromDepth.tsv.000.txt.tmpdir/chromDepth.tsv.000.txt_013_14'
p20
aS'/scratch/2022_summer_internship/mjcho/FCD_project/WES_A_strelka/workspace/chromDepth.tsv.tmpdir/chromDepth.tsv.000.txt.tmpdir/chromDepth.tsv.000.txt_014_15'
p21
aS'/scratch/2022_summer_internship/mjcho/FCD_project/WES_A_strelka/workspace/chromDepth.tsv.tmpdir/chromDepth.tsv.000.txt.tmpdir/chromDepth.tsv.000.txt_015_16'
p22
aS'/scratch/2022_summer_internship/mjcho/FCD_project/WES_A_strelka/workspace/chromDepth.tsv.tmpdir/chromDepth.tsv.000.txt.tmpdir/chromDepth.tsv.000.txt_016_17'
p23
aS'/scratch/2022_summer_internship/mjcho/FCD_project/WES_A_strelka/workspace/chromDepth.tsv.tmpdir/chromDepth.tsv.000.txt.tmpdir/chromDepth.tsv.000.txt_017_18'
p24
aS'/scratch/2022_summer_internship/mjcho/FCD_project/WES_A_strelka/workspace/chromDepth.tsv.tmpdir/chromDepth.tsv.000.txt.tmpdir/chromDepth.tsv.000.txt_018_19'
p25
aS'/scratch/2022_summer_internship/mjcho/FCD_project/WES_A_strelka/workspace/chromDepth.tsv.tmpdir/chromDepth.tsv.000.txt.tmpdir/chromDepth.tsv.000.txt_019_20'
p26
aS'/scratch/2022_summer_internship/mjcho/FCD_project/WES_A_strelka/workspace/chromDepth.tsv.tmpdir/chromDepth.tsv.000.txt.tmpdir/chromDepth.tsv.000.txt_020_21'
p27
aS'/scratch/2022_summer_internship/mjcho/FCD_project/WES_A_strelka/workspace/chromDepth.tsv.tmpdir/chromDepth.tsv.000.txt.tmpdir/chromDepth.tsv.000.txt_021_22'
p28
aS'/scratch/2022_summer_internship/mjcho/FCD_project/WES_A_strelka/workspace/chromDepth.tsv.tmpdir/chromDepth.tsv.000.txt.tmpdir/chromDepth.tsv.000.txt_022_X'
p29
aS'/scratch/2022_summer_internship/mjcho/FCD_project/WES_A_strelka/workspace/chromDepth.tsv.tmpdir/chromDepth.tsv.000.txt.tmpdir/chromDepth.tsv.000.txt_023_Y'
p30
asS'errFile'
p31
S'/scratch/2022_summer_internship/mjcho/FCD_project/WES_A_strelka/workspace/pyflow.data/logs/pyflow_tasks_stderr_log.txt'
p32
sS'outFile'
p33
S'/scratch/2022_summer_internship/mjcho/FCD_project/WES_A_strelka/workspace/pyflow.data/logs/pyflow_tasks_stdout_log.txt'
p34
sS'env'
p35
NsS'nCores'
p36
I1
sS'cwd'
p37
S''
p38
s.