(dp0
S'StrelkaSomatic'
p1
(dp2
S'genomeRegionList'
p3
NsS'isEstimateSequenceError'
p4
I00
sS'isExome'
p5
I00
sS'ssnvNoiseStrandBiasFrac'
p6
S'0.0'
p7
sS'referenceFasta'
p8
S'/data/references/b37/human_g1k_v37_decoy.fasta'
p9
sS'normalBamList'
p10
(lp11
S'/scratch/2022_summer_internship/mjcho/FCD_project/bam/WES_B_Normal.sorted.RGadded.marked.realigned.fixed.recal.bam'
p12
asS'indelErrorModelName'
p13
NsS'workflowScriptName'
p14
S'runWorkflow.py'
p15
sS'depthFilterMultiple'
p16
S'3.0'
p17
sS'statsMergeBin'
p18
S'/opt/biogrids/x86_64-linux/strelka/2.9.2/libexec/MergeRunStats'
p19
sS'isEVS'
p20
I01
sS'inputIndelErrorModelsFile'
p21
NsS'snvScoringModelFile'
p22
S'/opt/biogrids/x86_64-linux/strelka/2.9.2/share/config/somaticSNVScoringModels.json'
p23
sS'libexecDir'
p24
S'/opt/biogrids/x86_64-linux/strelka/2.9.2/libexec'
p25
sS'isRetainTempFiles'
p26
I00
sS'minTier2Mapq'
p27
S'0'
p28
sS'ssnvQuality_LowerBound'
p29
S'15'
p30
sS'isReportEVSFeatures'
p31
I00
sS'tabixBin'
p32
S'/opt/biogrids/x86_64-linux/strelka/2.9.2/libexec/tabix'
p33
sS'sindelQuality_LowerBound'
p34
S'40'
p35
sS'snvMaxSpanningDeletionFrac'
p36
S'0.75'
p37
sS'callRegionsBed'
p38
S'/scratch/2022_summer_internship/mjcho/FCD_project/bed/wes.bed.gz'
p39
sS'ssnvPrior'
p40
S'0.0001'
p41
sS'sindelPrior'
p42
S'0.000001'
p43
sS'samtoolsBin'
p44
S'/opt/biogrids/x86_64-linux/strelka/2.9.2/libexec/samtools'
p45
sS'ssnvNoise'
p46
S'0.0000000005'
p47
sS'bgcatBin'
p48
S'/opt/biogrids/x86_64-linux/strelka/2.9.2/libexec/bgzf_cat'
p49
sS'indelContamTolerance'
p50
S'0.15'
p51
sS'vcfCmdlineSwapper'
p52
S'/opt/biogrids/x86_64-linux/strelka/2.9.2/libexec/vcfCmdlineSwapper.py'
p53
sS'forcedGTList'
p54
NsS'extraVariantCallerArguments'
p55
NsS'indelCandidatesList'
p56
NsS'callLocalMemMb'
p57
F1536.0
sS'strelkaSomaticBin'
p58
S'/opt/biogrids/x86_64-linux/strelka/2.9.2/libexec/strelka2'
p59
sS'isWriteRealignedBam'
p60
g28
sS'getChromDepthBin'
p61
S'/opt/biogrids/x86_64-linux/strelka/2.9.2/libexec/GetChromDepth'
p62
sS'callSGEMemMb'
p63
I4096
sS'mergeChromDepth'
p64
S'/opt/biogrids/x86_64-linux/strelka/2.9.2/libexec/mergeChromDepth.py'
p65
sS'errorEstimationMinChromMb'
p66
I5
sS'catScript'
p67
S'/opt/biogrids/x86_64-linux/strelka/2.9.2/libexec/cat.py'
p68
sS'runDir'
p69
S'/scratch/2022_summer_internship/mjcho/FCD_project/WES_B_strelka'
p70
sS'indelScoringModelFile'
p71
S'/opt/biogrids/x86_64-linux/strelka/2.9.2/share/config/somaticIndelScoringModels.json'
p72
sS'regionStrList'
p73
NsS'isOutputCallableRegions'
p74
I00
sS'ssnvContamTolerance'
p75
S'0.15'
p76
sS'sindelNoiseFactor'
p77
S'2.2'
p78
sS'snvMaxFilteredBasecallFrac'
p79
S'0.4'
p80
sS'errorEstimationMinTotalMb'
p81
I50
sS'callMemMbOverride'
p82
NsS'userConfigPath'
p83
NsS'maxIndelSize'
p84
S'49'
p85
sS'noiseVcfList'
p86
NsS'isRNA'
p87
I00
sS'minTier1Mapq'
p88
S'20'
p89
sS'htsfileBin'
p90
S'/opt/biogrids/x86_64-linux/strelka/2.9.2/libexec/htsfile'
p91
sS'tumorBamList'
p92
(lp93
S'/scratch/2022_summer_internship/mjcho/FCD_project/bam/WES_B_Disease.sorted.RGadded.marked.realigned.fixed.recal.bam'
p94
asS'scanSizeMb'
p95
I12
sS'bgzipBin'
p96
S'/opt/biogrids/x86_64-linux/strelka/2.9.2/libexec/bgzip'
p97
sS'configCommandLine'
p98
(lp99
S'/opt/biogrids/x86_64-linux/strelka/2.9.2/bin/configureStrelkaSomaticWorkflow.py'
p100
aS'--normalBam'
p101
aS'./bam/WES_B_Normal.sorted.RGadded.marked.realigned.fixed.recal.bam'
p102
aS'--tumorBam'
p103
aS'./bam/WES_B_Disease.sorted.RGadded.marked.realigned.fixed.recal.bam'
p104
aS'--referenceFasta'
p105
aS'/data/references/b37/human_g1k_v37_decoy.fasta'
p106
aS'--callRegions'
p107
aS'./bed/wes.bed.gz'
p108
aS'--runDir'
p109
aS'./WES_B_strelka'
p110
asS'indelMaxWindowFilteredBasecallFrac'
p111
S'0.3'
p112
ss.