(dp0
S'isShellCmd'
p1
I00
sS'cmd'
p2
(lp3
S'/opt/biogrids/x86_64-linux/strelka/2.9.2/libexec/strelka2'
p4
aS'--region'
p5
aS'9:82374503-94142288'
p6
aS'--ref'
p7
aS'/data/references/b37/human_g1k_v37_decoy.fasta'
p8
aS'--max-indel-size'
p9
aS'49'
p10
aS'--call-regions-bed'
p11
aS'/scratch/2022_summer_internship/mjcho/FCD_project/bed/targeted.bed.gz'
p12
aS'--min-mapping-quality'
p13
aS'20'
p14
aS'--somatic-snv-rate'
p15
aS'0.0001'
p16
aS'--shared-site-error-rate'
p17
aS'0.0000000005'
p18
aS'--shared-site-error-strand-bias-fraction'
p19
aS'0.0'
p20
aS'--somatic-indel-rate'
p21
aS'0.000001'
p22
aS'--shared-indel-error-factor'
p23
aS'2.2'
p24
aS'--tier2-min-mapping-quality'
p25
aS'0'
p26
aS'--strelka-snv-max-filtered-basecall-frac'
p27
aS'0.4'
p28
aS'--strelka-snv-max-spanning-deletion-frac'
p29
aS'0.75'
p30
aS'--strelka-snv-min-qss-ref'
p31
aS'15'
p32
aS'--strelka-indel-max-window-filtered-basecall-frac'
p33
aS'0.3'
p34
aS'--strelka-indel-min-qsi-ref'
p35
aS'40'
p36
aS'--ssnv-contam-tolerance'
p37
aS'0.15'
p38
aS'--indel-contam-tolerance'
p39
aS'0.15'
p40
aS'--somatic-snv-scoring-model-file'
p41
aS'/opt/biogrids/x86_64-linux/strelka/2.9.2/share/config/somaticSNVScoringModels.json'
p42
aS'--somatic-indel-scoring-model-file'
p43
aS'/opt/biogrids/x86_64-linux/strelka/2.9.2/share/config/somaticIndelScoringModels.json'
p44
aS'--normal-align-file'
p45
aS'/scratch/2022_summer_internship/mjcho/FCD_project/bam/Targeted_C_Normal.sorted.RGadded.marked.realigned.fixed.recal.bam'
p46
aS'--tumor-align-file'
p47
aS'/scratch/2022_summer_internship/mjcho/FCD_project/bam/Targeted_C_Disease.sorted.RGadded.marked.realigned.fixed.recal.bam'
p48
aS'--somatic-snv-file'
p49
aS'/scratch/2022_summer_internship/mjcho/FCD_project/Targeted_C_strelka/workspace/genomeSegment.tmpdir/somatic.snvs.unfiltered.chromId_008_9_0007.vcf'
p50
aS'--somatic-indel-file'
p51
aS'/scratch/2022_summer_internship/mjcho/FCD_project/Targeted_C_strelka/workspace/genomeSegment.tmpdir/somatic.indels.unfiltered.chromId_008_9_0007.vcf'
p52
aS'--stats-file'
p53
aS'/scratch/2022_summer_internship/mjcho/FCD_project/Targeted_C_strelka/workspace/genomeSegment.tmpdir/runStats.chromId_008_9_0007.xml'
p54
aS'--strelka-skip-header'
p55
aS'--strelka-chrom-depth-file'
p56
aS'/scratch/2022_summer_internship/mjcho/FCD_project/Targeted_C_strelka/workspace/chromDepth.tsv'
p57
aS'--strelka-max-depth-factor'
p58
aS'3.0'
p59
asS'errFile'
p60
S'/scratch/2022_summer_internship/mjcho/FCD_project/Targeted_C_strelka/workspace/pyflow.data/logs/pyflow_tasks_stderr_log.txt'
p61
sS'outFile'
p62
S'/scratch/2022_summer_internship/mjcho/FCD_project/Targeted_C_strelka/workspace/pyflow.data/logs/pyflow_tasks_stdout_log.txt'
p63
sS'env'
p64
NsS'nCores'
p65
I1
sS'cwd'
p66
S''
p67
s.